ccopy_reg
_reconstructor
p1
(cfeedparser
FeedParserDict
p2
c__builtin__
dict
p3
(dp4
S'feed'
p5
g1
(g2
g3
(dp6
S'title_detail'
p7
g1
(g2
g3
(dp8
S'base'
p9
Vhttp://www.reddit.com/.rss
p10
sS'type'
p11
Vtext/plain
p12
sS'language'
p13
NsS'value'
p14
Vreddit: the front page of the internet
p15
stRp16
sS'subtitle'
p17
V
sS'links'
p18
(lp19
g1
(g2
g3
(dp20
S'href'
p21
Vhttp://www.reddit.com/
p22
sg11
Vtext/html
p23
sS'rel'
p24
Valternate
p25
stRp26
ag1
(g2
g3
(dp27
S'href'
p28
Vhttp://www.reddit.com/.rss
p29
sS'type'
p30
Vapplication/rss+xml
p31
sS'rel'
p32
Vself
p33
stRp34
asS'title'
p35
g15
sS'link'
p36
g22
sS'image'
p37
g1
(g2
g3
(dp38
S'title_detail'
p39
g1
(g2
g3
(dp40
g9
Vhttp://www.reddit.com/.rss
p41
sg11
g12
sg13
Nsg14
Vreddit: the front page of the internet
p42
stRp43
sg21
Vhttp://www.reddit.com/WnWL9EIaP8UCXn12wtaLaNrDSQgM4Dfrtammyb88RMU.png
p44
sg36
Vhttp://www.reddit.com/
p45
sg18
(lp46
g1
(g2
g3
(dp47
g21
g45
sg11
g23
sg24
g25
stRp48
asg35
g42
stRp49
sS'subtitle_detail'
p50
g1
(g2
g3
(dp51
g9
Vhttp://www.reddit.com/.rss
p52
sg11
Vtext/html
p53
sg13
Nsg14
V
stRp54
stRp55
sS'status'
p56
I200
sS'encoding'
p57
VUTF-8
p58
sS'bozo'
p59
I0
sS'entries'
p60
(lp61
g1
(g2
g3
(dp62
S'summary_detail'
p63
g1
(g2
g3
(dp64
g9
Vhttp://www.reddit.com/.rss
p65
sg11
g53
sg13
Nsg14
V<table> <tr><td> <a href="http://www.reddit.com/r/todayilearned/comments/2zcgnu/til_that_on_saint_patricks_day_began_as_a_feast/"><img alt="TIL that on Saint Patrick's Day began as a &quot;feast day&quot; in honor of the anniversary of the day he died. To honor him, Christians could put aside their Lenten restrictions on food and alcohol consumption on this day, which is why excessive drinking has become so permanently linked to the celebration." src="http://b.thumbs.redditmedia.com/zg1lzZecwrY5ehR7_WAcg0zNcvq4lNHqld2YTx3FbjE.jpg" title="TIL that on Saint Patrick's Day began as a &quot;feast day&quot; in honor of the anniversary of the day he died. To honor him, Christians could put aside their Lenten restrictions on food and alcohol consumption on this day, which is why excessive drinking has become so permanently linked to the celebration." /></a> </td><td> submitted by <a href="http://www.reddit.com/user/PolkyPolk"> PolkyPolk </a> to <a href="http://www.reddit.com/r/todayilearned/"> todayilearned</a> <br /> <a href="http://learn.kegerator.com/history-of-saint-patricks-day/">[link]</a> <a href="http://www.reddit.com/r/todayilearned/comments/2zcgnu/til_that_on_saint_patricks_day_began_as_a_feast/">[621 comments]</a> </td></tr></table>
p66
stRp67
sg18
(lp68
g1
(g2
g3
(dp69
g21
Vhttp://www.reddit.com/r/todayilearned/comments/2zcgnu/til_that_on_saint_patricks_day_began_as_a_feast/
p70
sg11
g23
sg24
g25
stRp71
asS'published_parsed'
p72
ctime
struct_time
p73
((I2015
I3
I17
I13
I1
I31
I1
I76
I0
t(dtRp74
sS'tags'
p75
(lp76
g1
(g2
g3
(dp77
S'term'
p78
Vtodayilearned
p79
sS'scheme'
p80
NsS'label'
p81
NstRp82
asg35
VTIL that on Saint Patrick's Day began as a "feast day" in honor of the anniversary of the day he died. To honor him, Christians could put aside their Lenten restrictions on food and alcohol consumption on this day, which is why excessive drinking has become so permanently linked to the celebration.
p83
sS'media_thumbnail'
p84
(lp85
(dp86
S'url'
p87
Vhttp://b.thumbs.redditmedia.com/zg1lzZecwrY5ehR7_WAcg0zNcvq4lNHqld2YTx3FbjE.jpg
p88
sasS'summary'
p89
g66
sS'guidislink'
p90
I00
sS'title_detail'
p91
g1
(g2
g3
(dp92
g9
Vhttp://www.reddit.com/.rss
p93
sg11
g12
sg13
Nsg14
g83
stRp94
sg21
V
sg36
g70
sS'published'
p95
VTue, 17 Mar 2015 13:01:31 +0000
p96
sS'canto_state'
p97
(lp98
g15
aV*
asS'id'
p99
Vhttp://www.reddit.com/r/todayilearned/comments/2zcgnu/til_that_on_saint_patricks_day_began_as_a_feast/
p100
stRp101
ag1
(g2
g3
(dp102
S'summary_detail'
p103
g1
(g2
g3
(dp104
g9
Vhttp://www.reddit.com/.rss
p105
sg11
g53
sg13
Nsg14
V<!-- SC_OFF --><div class="md"><p>EDIT 1: Clean = no racism, sexism, religion-ism (if there's a word for it), etc.<br /> EDIT 2: I'll never understand Reddit's love for penis jokes.</p> </div><!-- SC_ON --> submitted by <a href="http://www.reddit.com/user/Elemental_Dragon"> Elemental_Dragon </a> to <a href="http://www.reddit.com/r/AskReddit/"> AskReddit</a> <br /> <a href="http://www.reddit.com/r/AskReddit/comments/2zch57/whats_a_short_clean_joke_that_gets_a_laugh_every/">[link]</a> <a href="http://www.reddit.com/r/AskReddit/comments/2zch57/whats_a_short_clean_joke_that_gets_a_laugh_every/">[4431 comments]</a>
p106
stRp107
sg18
(lp108
g1
(g2
g3
(dp109
g21
Vhttp://www.reddit.com/r/AskReddit/comments/2zch57/whats_a_short_clean_joke_that_gets_a_laugh_every/
p110
sg11
g23
sg24
g25
stRp111
asg72
g73
((I2015
I3
I17
I13
I6
I24
I1
I76
I0
t(dtRp112
sg75
(lp113
g1
(g2
g3
(dp114
g78
VAskReddit
p115
sg80
Nsg81
NstRp116
asg35
VWhat's a short, clean joke that gets a laugh every time?
p117
sg89
g106
sg90
I00
sS'title_detail'
p118
g1
(g2
g3
(dp119
g9
Vhttp://www.reddit.com/.rss
p120
sg11
g12
sg13
Nsg14
g117
stRp121
sg36
g110
sg95
VTue, 17 Mar 2015 13:06:24 +0000
p122
sg97
(lp123
g15
aV*
asg99
Vhttp://www.reddit.com/r/AskReddit/comments/2zch57/whats_a_short_clean_joke_that_gets_a_laugh_every/
p124
stRp125
ag1
(g2
g3
(dp126
S'summary_detail'
p127
g1
(g2
g3
(dp128
g9
Vhttp://www.reddit.com/.rss
p129
sg11
g53
sg13
Nsg14
V<table> <tr><td> <a href="http://www.reddit.com/r/gifs/comments/2zce9y/oh_heyyyyyyyyyy/"><img alt="Oh heyyyyyyyyyy" src="http://b.thumbs.redditmedia.com/nkIrp5uDhD7eeRibtb3sRr5J8Z5YpwLcdgHXltRBO0I.jpg" title="Oh heyyyyyyyyyy" /></a> </td><td> submitted by <a href="http://www.reddit.com/user/MikeyTheDinosaur"> MikeyTheDinosaur </a> to <a href="http://www.reddit.com/r/gifs/"> gifs</a> <br /> <a href="http://i.imgur.com/QD5735j.gifv">[link]</a> <a href="http://www.reddit.com/r/gifs/comments/2zce9y/oh_heyyyyyyyyyy/">[292 comments]</a> </td></tr></table>
p130
stRp131
sg18
(lp132
g1
(g2
g3
(dp133
g21
Vhttp://www.reddit.com/r/gifs/comments/2zce9y/oh_heyyyyyyyyyy/
p134
sg11
g23
sg24
g25
stRp135
asg72
g73
((I2015
I3
I17
I12
I34
I17
I1
I76
I0
t(dtRp136
sg75
(lp137
g1
(g2
g3
(dp138
g78
Vgifs
p139
sg80
Nsg81
NstRp140
asg35
VOh heyyyyyyyyyy
p141
sg84
(lp142
(dp143
S'url'
p144
Vhttp://b.thumbs.redditmedia.com/nkIrp5uDhD7eeRibtb3sRr5J8Z5YpwLcdgHXltRBO0I.jpg
p145
sasg89
g130
sg90
I00
sS'title_detail'
p146
g1
(g2
g3
(dp147
g9
Vhttp://www.reddit.com/.rss
p148
sg11
g12
sg13
Nsg14
g141
stRp149
sg21
V
sg36
g134
sg95
VTue, 17 Mar 2015 12:34:17 +0000
p150
sg97
(lp151
g15
aV*
asg99
Vhttp://www.reddit.com/r/gifs/comments/2zce9y/oh_heyyyyyyyyyy/
p152
stRp153
ag1
(g2
g3
(dp154
S'summary_detail'
p155
g1
(g2
g3
(dp156
g9
Vhttp://www.reddit.com/.rss
p157
sg11
g53
sg13
Nsg14
V<table> <tr><td> <a href="http://www.reddit.com/r/aww/comments/2zckqp/thats_a_put_me_down_face_if_ive_ever_seen_one/"><img alt="That's a 'put me down' face if I've ever seen one." src="http://b.thumbs.redditmedia.com/RCgkZV5SI42ALeUUcFKu-Kg3texnh2syvksirH-KJkY.jpg" title="That's a 'put me down' face if I've ever seen one." /></a> </td><td> submitted by <a href="http://www.reddit.com/user/Isai76"> Isai76 </a> to <a href="http://www.reddit.com/r/aww/"> aww</a> <br /> <a href="http://i.imgur.com/V7Wp20R.jpg">[link]</a> <a href="http://www.reddit.com/r/aww/comments/2zckqp/thats_a_put_me_down_face_if_ive_ever_seen_one/">[80 comments]</a> </td></tr></table>
p158
stRp159
sg18
(lp160
g1
(g2
g3
(dp161
g21
Vhttp://www.reddit.com/r/aww/comments/2zckqp/thats_a_put_me_down_face_if_ive_ever_seen_one/
p162
sg11
g23
sg24
g25
stRp163
asg72
g73
((I2015
I3
I17
I13
I40
I38
I1
I76
I0
t(dtRp164
sg75
(lp165
g1
(g2
g3
(dp166
g78
Vaww
p167
sg80
Nsg81
NstRp168
asg35
VThat's a 'put me down' face if I've ever seen one.
p169
sg84
(lp170
(dp171
S'url'
p172
Vhttp://b.thumbs.redditmedia.com/RCgkZV5SI42ALeUUcFKu-Kg3texnh2syvksirH-KJkY.jpg
p173
sasg89
g158
sg90
I00
sS'title_detail'
p174
g1
(g2
g3
(dp175
g9
Vhttp://www.reddit.com/.rss
p176
sg11
g12
sg13
Nsg14
g169
stRp177
sg21
V
sg36
g162
sg95
VTue, 17 Mar 2015 13:40:38 +0000
p178
sg97
(lp179
g15
aV*
asg99
Vhttp://www.reddit.com/r/aww/comments/2zckqp/thats_a_put_me_down_face_if_ive_ever_seen_one/
p180
stRp181
ag1
(g2
g3
(dp182
S'summary_detail'
p183
g1
(g2
g3
(dp184
g9
Vhttp://www.reddit.com/.rss
p185
sg11
g53
sg13
Nsg14
V<table> <tr><td> <a href="http://www.reddit.com/r/funny/comments/2zcv65/he_does_work_in_mysterious_ways/"><img alt="He does work in mysterious ways" src="http://b.thumbs.redditmedia.com/rURUK_lvWrbyt2z9fMc2BAkVBSybaLvWwpbHJS8JfTU.jpg" title="He does work in mysterious ways" /></a> </td><td> submitted by <a href="http://www.reddit.com/user/Oldie_But_Goodie"> Oldie_But_Goodie </a> to <a href="http://www.reddit.com/r/funny/"> funny</a> <br /> <a href="http://i.imgur.com/c2Kboqp.jpg">[link]</a> <a href="http://www.reddit.com/r/funny/comments/2zcv65/he_does_work_in_mysterious_ways/">[93 comments]</a> </td></tr></table>
p186
stRp187
sg18
(lp188
g1
(g2
g3
(dp189
g21
Vhttp://www.reddit.com/r/funny/comments/2zcv65/he_does_work_in_mysterious_ways/
p190
sg11
g23
sg24
g25
stRp191
asg72
g73
((I2015
I3
I17
I15
I9
I55
I1
I76
I0
t(dtRp192
sg75
(lp193
g1
(g2
g3
(dp194
g78
Vfunny
p195
sg80
Nsg81
NstRp196
asg35
VHe does work in mysterious ways
p197
sg84
(lp198
(dp199
S'url'
p200
Vhttp://b.thumbs.redditmedia.com/rURUK_lvWrbyt2z9fMc2BAkVBSybaLvWwpbHJS8JfTU.jpg
p201
sasg89
g186
sg90
I00
sS'title_detail'
p202
g1
(g2
g3
(dp203
g9
Vhttp://www.reddit.com/.rss
p204
sg11
g12
sg13
Nsg14
g197
stRp205
sg21
V
sg36
g190
sg95
VTue, 17 Mar 2015 15:09:55 +0000
p206
sg97
(lp207
g15
aV*
asg99
Vhttp://www.reddit.com/r/funny/comments/2zcv65/he_does_work_in_mysterious_ways/
p208
stRp209
ag1
(g2
g3
(dp210
S'summary_detail'
p211
g1
(g2
g3
(dp212
g9
Vhttp://www.reddit.com/.rss
p213
sg11
g53
sg13
Nsg14
V<table> <tr><td> <a href="http://www.reddit.com/r/pics/comments/2zc3my/i_live_in_australia_today_this_beetle_hissed_at/"><img alt="I live in Australia. Today this beetle hissed at me so i got it some sugar water as a peace offering." src="http://b.thumbs.redditmedia.com/ckrQUg0yC0ijwnYOT-SYzKEubklrb2lBgJkkvVkcKGs.jpg" title="I live in Australia. Today this beetle hissed at me so i got it some sugar water as a peace offering." /></a> </td><td> submitted by <a href="http://www.reddit.com/user/berlinzoo33"> berlinzoo33 </a> to <a href="http://www.reddit.com/r/pics/"> pics</a> <br /> <a href="http://i.imgur.com/My1m3u5.jpg">[link]</a> <a href="http://www.reddit.com/r/pics/comments/2zc3my/i_live_in_australia_today_this_beetle_hissed_at/">[1548 comments]</a> </td></tr></table>
p214
stRp215
sg18
(lp216
g1
(g2
g3
(dp217
g21
Vhttp://www.reddit.com/r/pics/comments/2zc3my/i_live_in_australia_today_this_beetle_hissed_at/
p218
sg11
g23
sg24
g25
stRp219
asg72
g73
((I2015
I3
I17
I10
I7
I30
I1
I76
I0
t(dtRp220
sg75
(lp221
g1
(g2
g3
(dp222
g78
Vpics
p223
sg80
Nsg81
NstRp224
asg35
VI live in Australia. Today this beetle hissed at me so i got it some sugar water as a peace offering.
p225
sg84
(lp226
(dp227
S'url'
p228
Vhttp://b.thumbs.redditmedia.com/ckrQUg0yC0ijwnYOT-SYzKEubklrb2lBgJkkvVkcKGs.jpg
p229
sasg89
g214
sg90
I00
sS'title_detail'
p230
g1
(g2
g3
(dp231
g9
Vhttp://www.reddit.com/.rss
p232
sg11
g12
sg13
Nsg14
g225
stRp233
sg21
V
sg36
g218
sg95
VTue, 17 Mar 2015 10:07:30 +0000
p234
sg97
(lp235
g15
aV*
asg99
Vhttp://www.reddit.com/r/pics/comments/2zc3my/i_live_in_australia_today_this_beetle_hissed_at/
p236
stRp237
ag1
(g2
g3
(dp238
S'summary_detail'
p239
g1
(g2
g3
(dp240
g9
Vhttp://www.reddit.com/.rss
p241
sg11
g53
sg13
Nsg14
Vsubmitted by <a href="http://www.reddit.com/user/giantjesus"> giantjesus </a> to <a href="http://www.reddit.com/r/worldnews/"> worldnews</a> <br /> <a href="http://www.wort.lu/en/business/transatlantic-flights-rumours-rife-of-14-euro-ryanair-flights-to-us-5507eb750c88b46a8ce5591c">[link]</a> <a href="http://www.reddit.com/r/worldnews/comments/2zcb92/irish_nofrills_airline_ryanair_confirmed_its/">[972 comments]</a>
p242
stRp243
sg18
(lp244
g1
(g2
g3
(dp245
g21
Vhttp://www.reddit.com/r/worldnews/comments/2zcb92/irish_nofrills_airline_ryanair_confirmed_its/
p246
sg11
g23
sg24
g25
stRp247
asg72
g73
((I2015
I3
I17
I11
I57
I56
I1
I76
I0
t(dtRp248
sg75
(lp249
g1
(g2
g3
(dp250
g78
Vworldnews
p251
sg80
Nsg81
NstRp252
asg35
VIrish no-frills airline Ryanair confirmed its board has approved plans to start flying low-cost transatlantic routes starting from $14 in the next five years.
p253
sg89
g242
sg90
I00
sS'title_detail'
p254
g1
(g2
g3
(dp255
g9
Vhttp://www.reddit.com/.rss
p256
sg11
g12
sg13
Nsg14
g253
stRp257
sg36
g246
sg95
VTue, 17 Mar 2015 11:57:56 +0000
p258
sg97
(lp259
g15
aV*
asg99
Vhttp://www.reddit.com/r/worldnews/comments/2zcb92/irish_nofrills_airline_ryanair_confirmed_its/
p260
stRp261
ag1
(g2
g3
(dp262
S'summary_detail'
p263
g1
(g2
g3
(dp264
g9
Vhttp://www.reddit.com/.rss
p265
sg11
g53
sg13
Nsg14
V<!-- SC_OFF --><div class="md"><p>Proof at <a href="http://www.twitter.com/thomashousedub">www.twitter.com/thomashousedub</a></p> <p>I'm back again for a mini session. Yes it's St.Patricks day. And yes I own and run a pub here in Dublin. It's 11:45am and the streets are already busy. We open for business in one hour. We are The Thomas House and we're located at 86 Thomas Street in The Liberties area of Dublin. So feel free to ask me anything about this, one of our busiest days of the year. </p> <p><a href="https://vimeo.com/90651618">https://vimeo.com/90651618</a> a video of the bar. I'm Gar!</p> <p>I also run an Internet radio show every Sunday. Details at <a href="http://www.twitter.com/elbangbangshow">www.twitter.com/elbangbangshow</a> so check us out there!</p> </div><!-- SC_ON --> submitted by <a href="http://www.reddit.com/user/bombidol"> bombidol </a> to <a href="http://www.reddit.com/r/IAmA/"> IAmA</a> <br /> <a href="http://www.reddit.com/r/IAmA/comments/2zcahq/ima_bar_owner_in_dublin_ireland_on_stpaddys_day/">[link]</a> <a href="http://www.reddit.com/r/IAmA/comments/2zcahq/ima_bar_owner_in_dublin_ireland_on_stpaddys_day/">[1803 comments]</a>
p266
stRp267
sg18
(lp268
g1
(g2
g3
(dp269
g21
Vhttp://www.reddit.com/r/IAmA/comments/2zcahq/ima_bar_owner_in_dublin_ireland_on_stpaddys_day/
p270
sg11
g23
sg24
g25
stRp271
asg72
g73
((I2015
I3
I17
I11
I47
I24
I1
I76
I0
t(dtRp272
sg75
(lp273
g1
(g2
g3
(dp274
g78
VIAmA
p275
sg80
Nsg81
NstRp276
asg35
VIMA bar owner in Dublin, Ireland on St.Paddys day.
p277
sg89
g266
sg90
I00
sS'title_detail'
p278
g1
(g2
g3
(dp279
g9
Vhttp://www.reddit.com/.rss
p280
sg11
g12
sg13
Nsg14
g277
stRp281
sg36
g270
sg95
VTue, 17 Mar 2015 11:47:24 +0000
p282
sg97
(lp283
g15
aV*
asg99
Vhttp://www.reddit.com/r/IAmA/comments/2zcahq/ima_bar_owner_in_dublin_ireland_on_stpaddys_day/
p284
stRp285
ag1
(g2
g3
(dp286
S'summary_detail'
p287
g1
(g2
g3
(dp288
g9
Vhttp://www.reddit.com/.rss
p289
sg11
g53
sg13
Nsg14
V<!-- SC_OFF --><div class="md"><p>Always have a plan for your success: this means doing work that you are good at, and having someone available to do your job so you can be promoted to your next job.</p> </div><!-- SC_ON --> submitted by <a href="http://www.reddit.com/user/AsstarMcButtNugget"> AsstarMcButtNugget </a> to <a href="http://www.reddit.com/r/LifeProTips/"> LifeProTips</a> <br /> <a href="http://www.reddit.com/r/LifeProTips/comments/2zckk8/lpt_job_security_is_a_twoedged_sword_if_you_are/">[link]</a> <a href="http://www.reddit.com/r/LifeProTips/comments/2zckk8/lpt_job_security_is_a_twoedged_sword_if_you_are/">[316 comments]</a>
p290
stRp291
sg18
(lp292
g1
(g2
g3
(dp293
g21
Vhttp://www.reddit.com/r/LifeProTips/comments/2zckk8/lpt_job_security_is_a_twoedged_sword_if_you_are/
p294
sg11
g23
sg24
g25
stRp295
asg72
g73
((I2015
I3
I17
I13
I38
I47
I1
I76
I0
t(dtRp296
sg75
(lp297
g1
(g2
g3
(dp298
g78
VLifeProTips
p299
sg80
Nsg81
NstRp300
asg35
VLPT: Job security is a two-edged sword; if you are irreplaceable, you are also unpromotable.
p301
sg89
g290
sg90
I00
sS'title_detail'
p302
g1
(g2
g3
(dp303
g9
Vhttp://www.reddit.com/.rss
p304
sg11
g12
sg13
Nsg14
g301
stRp305
sg36
g294
sg95
VTue, 17 Mar 2015 13:38:47 +0000
p306
sg97
(lp307
g15
aV*
asg99
Vhttp://www.reddit.com/r/LifeProTips/comments/2zckk8/lpt_job_security_is_a_twoedged_sword_if_you_are/
p308
stRp309
ag1
(g2
g3
(dp310
S'summary_detail'
p311
g1
(g2
g3
(dp312
g9
Vhttp://www.reddit.com/.rss
p313
sg11
g53
sg13
Nsg14
V<table> <tr><td> <a href="http://www.reddit.com/r/space/comments/2zc356/mars_one_finalist_breaks_silence_claims/"><img alt="'Mars One' finalist breaks silence, claims organization is a total scam" src="http://a.thumbs.redditmedia.com/oPAhR63CrJBSv5_6rr3dT21paPPYXYTgmL-crdIx6a0.jpg" title="'Mars One' finalist breaks silence, claims organization is a total scam" /></a> </td><td> submitted by <a href="http://www.reddit.com/user/powercow"> powercow </a> to <a href="http://www.reddit.com/r/space/"> space</a> <br /> <a href="http://www.techspot.com/news/60071-mars-one-finalist-breaks-silence-claims-organization-total.html?google_editors_picks=true">[link]</a> <a href="http://www.reddit.com/r/space/comments/2zc356/mars_one_finalist_breaks_silence_claims/">[808 comments]</a> </td></tr></table>
p314
stRp315
sg18
(lp316
g1
(g2
g3
(dp317
g21
Vhttp://www.reddit.com/r/space/comments/2zc356/mars_one_finalist_breaks_silence_claims/
p318
sg11
g23
sg24
g25
stRp319
asg72
g73
((I2015
I3
I17
I10
I0
I0
I1
I76
I0
t(dtRp320
sg75
(lp321
g1
(g2
g3
(dp322
g78
Vspace
p323
sg80
Nsg81
NstRp324
asg35
V'Mars One' finalist breaks silence, claims organization is a total scam
p325
sg84
(lp326
(dp327
S'url'
p328
Vhttp://a.thumbs.redditmedia.com/oPAhR63CrJBSv5_6rr3dT21paPPYXYTgmL-crdIx6a0.jpg
p329
sasg89
g314
sg90
I00
sS'title_detail'
p330
g1
(g2
g3
(dp331
g9
Vhttp://www.reddit.com/.rss
p332
sg11
g12
sg13
Nsg14
g325
stRp333
sg21
V
sg36
g318
sg95
VTue, 17 Mar 2015 10:00:00 +0000
p334
sg97
(lp335
g15
aV*
asg99
Vhttp://www.reddit.com/r/space/comments/2zc356/mars_one_finalist_breaks_silence_claims/
p336
stRp337
ag1
(g2
g3
(dp338
S'summary_detail'
p339
g1
(g2
g3
(dp340
g9
Vhttp://www.reddit.com/.rss
p341
sg11
g53
sg13
Nsg14
V<table> <tr><td> <a href="http://www.reddit.com/r/books/comments/2zc3f3/spain_finds_don_quixote_writer_cervantes_tomb_in/"><img alt="Spain finds Don Quixote writer Cervantes' tomb in Madrid" src="http://b.thumbs.redditmedia.com/dVGFfBPN3OlEo64OUBreAU4518lJdtUleUZ_iD4eJbM.jpg" title="Spain finds Don Quixote writer Cervantes' tomb in Madrid" /></a> </td><td> submitted by <a href="http://www.reddit.com/user/braintrustinc"> braintrustinc </a> to <a href="http://www.reddit.com/r/books/"> books</a> <br /> <a href="http://www.bbc.com/news/world-europe-31852032">[link]</a> <a href="http://www.reddit.com/r/books/comments/2zc3f3/spain_finds_don_quixote_writer_cervantes_tomb_in/">[148 comments]</a> </td></tr></table>
p342
stRp343
sg18
(lp344
g1
(g2
g3
(dp345
g21
Vhttp://www.reddit.com/r/books/comments/2zc3f3/spain_finds_don_quixote_writer_cervantes_tomb_in/
p346
sg11
g23
sg24
g25
stRp347
asg72
g73
((I2015
I3
I17
I10
I4
I3
I1
I76
I0
t(dtRp348
sg75
(lp349
g1
(g2
g3
(dp350
g78
Vbooks
p351
sg80
Nsg81
NstRp352
asg35
VSpain finds Don Quixote writer Cervantes' tomb in Madrid
p353
sg84
(lp354
(dp355
S'url'
p356
Vhttp://b.thumbs.redditmedia.com/dVGFfBPN3OlEo64OUBreAU4518lJdtUleUZ_iD4eJbM.jpg
p357
sasg89
g342
sg90
I00
sS'title_detail'
p358
g1
(g2
g3
(dp359
g9
Vhttp://www.reddit.com/.rss
p360
sg11
g12
sg13
Nsg14
g353
stRp361
sg21
V
sg36
g346
sg95
VTue, 17 Mar 2015 10:04:03 +0000
p362
sg97
(lp363
g15
aV*
asg99
Vhttp://www.reddit.com/r/books/comments/2zc3f3/spain_finds_don_quixote_writer_cervantes_tomb_in/
p364
stRp365
ag1
(g2
g3
(dp366
S'summary_detail'
p367
g1
(g2
g3
(dp368
g9
Vhttp://www.reddit.com/.rss
p369
sg11
g53
sg13
Nsg14
V<table> <tr><td> <a href="http://www.reddit.com/r/nottheonion/comments/2zccfo/mom_arrested_after_asking_police_to_talk_to_young/"><img alt="Mom Arrested After Asking Police to Talk to Young Son About Stealing: Suit" src="http://b.thumbs.redditmedia.com/GetxyNy41V_MVTf7eOb2RL1DIM3dyprE1tdMctTiE1k.jpg" title="Mom Arrested After Asking Police to Talk to Young Son About Stealing: Suit" /></a> </td><td> submitted by <a href="http://www.reddit.com/user/aidangardiner"> aidangardiner </a> to <a href="http://www.reddit.com/r/nottheonion/"> nottheonion</a> <br /> <a href="http://www.dnainfo.com/new-york/20150317/morrisania/mom-arrested-after-asking-police-talk-young-son-about-stealing-suit">[link]</a> <a href="http://www.reddit.com/r/nottheonion/comments/2zccfo/mom_arrested_after_asking_police_to_talk_to_young/">[1073 comments]</a> </td></tr></table>
p370
stRp371
sg18
(lp372
g1
(g2
g3
(dp373
g21
Vhttp://www.reddit.com/r/nottheonion/comments/2zccfo/mom_arrested_after_asking_police_to_talk_to_young/
p374
sg11
g23
sg24
g25
stRp375
asg72
g73
((I2015
I3
I17
I12
I12
I11
I1
I76
I0
t(dtRp376
sg75
(lp377
g1
(g2
g3
(dp378
g78
Vnottheonion
p379
sg80
Nsg81
NstRp380
asg35
VMom Arrested After Asking Police to Talk to Young Son About Stealing: Suit
p381
sg84
(lp382
(dp383
S'url'
p384
Vhttp://b.thumbs.redditmedia.com/GetxyNy41V_MVTf7eOb2RL1DIM3dyprE1tdMctTiE1k.jpg
p385
sasg89
g370
sg90
I00
sS'title_detail'
p386
g1
(g2
g3
(dp387
g9
Vhttp://www.reddit.com/.rss
p388
sg11
g12
sg13
Nsg14
g381
stRp389
sg21
V
sg36
g374
sg95
VTue, 17 Mar 2015 05:12:11 -0700
p390
sg97
(lp391
g15
aV*
asg99
Vhttp://www.reddit.com/r/nottheonion/comments/2zccfo/mom_arrested_after_asking_police_to_talk_to_young/
p392
stRp393
ag1
(g2
g3
(dp394
S'summary_detail'
p395
g1
(g2
g3
(dp396
g9
Vhttp://www.reddit.com/.rss
p397
sg11
g53
sg13
Nsg14
V<table> <tr><td> <a href="http://www.reddit.com/r/gaming/comments/2zcdfn/leaked_screenshot_of_the_first_mobile_mario_game/"><img alt="Leaked screenshot of the first mobile Mario game." src="http://b.thumbs.redditmedia.com/a507GD6-YlXMGWYcTjl7EN2Bv3lL4tfvoeKplTC3jOM.jpg" title="Leaked screenshot of the first mobile Mario game." /></a> </td><td> submitted by <a href="http://www.reddit.com/user/The_Reckonist"> The_Reckonist </a> to <a href="http://www.reddit.com/r/gaming/"> gaming</a> <br /> <a href="http://i.imgur.com/PrbBslJ.jpg">[link]</a> <a href="http://www.reddit.com/r/gaming/comments/2zcdfn/leaked_screenshot_of_the_first_mobile_mario_game/">[126 comments]</a> </td></tr></table>
p398
stRp399
sg18
(lp400
g1
(g2
g3
(dp401
g21
Vhttp://www.reddit.com/r/gaming/comments/2zcdfn/leaked_screenshot_of_the_first_mobile_mario_game/
p402
sg11
g23
sg24
g25
stRp403
asg72
g73
((I2015
I3
I17
I12
I24
I42
I1
I76
I0
t(dtRp404
sg75
(lp405
g1
(g2
g3
(dp406
g78
Vgaming
p407
sg80
Nsg81
NstRp408
asg35
VLeaked screenshot of the first mobile Mario game.
p409
sg84
(lp410
(dp411
S'url'
p412
Vhttp://b.thumbs.redditmedia.com/a507GD6-YlXMGWYcTjl7EN2Bv3lL4tfvoeKplTC3jOM.jpg
p413
sasg89
g398
sg90
I00
sS'title_detail'
p414
g1
(g2
g3
(dp415
g9
Vhttp://www.reddit.com/.rss
p416
sg11
g12
sg13
Nsg14
g409
stRp417
sg21
V
sg36
g402
sg95
VTue, 17 Mar 2015 12:24:42 +0000
p418
sg97
(lp419
g15
aV*
asg99
Vhttp://www.reddit.com/r/gaming/comments/2zcdfn/leaked_screenshot_of_the_first_mobile_mario_game/
p420
stRp421
ag1
(g2
g3
(dp422
S'summary_detail'
p423
g1
(g2
g3
(dp424
g9
Vhttp://www.reddit.com/.rss
p425
sg11
g53
sg13
Nsg14
Vsubmitted by <a href="http://www.reddit.com/user/highbrowed"> highbrowed </a> to <a href="http://www.reddit.com/r/news/"> news</a> <br /> <a href="http://gizmodo.com/mars-one-is-broke-disorganized-and-sketchy-as-hell-1691726224">[link]</a> <a href="http://www.reddit.com/r/news/comments/2zcfh1/mars_one_is_broke_disorganized_and_sketchy_as_hell/">[252 comments]</a>
p426
stRp427
sg18
(lp428
g1
(g2
g3
(dp429
g21
Vhttp://www.reddit.com/r/news/comments/2zcfh1/mars_one_is_broke_disorganized_and_sketchy_as_hell/
p430
sg11
g23
sg24
g25
stRp431
asg72
g73
((I2015
I3
I17
I12
I48
I28
I1
I76
I0
t(dtRp432
sg75
(lp433
g1
(g2
g3
(dp434
g78
Vnews
p435
sg80
Nsg81
NstRp436
asg35
VMars One Is Broke, Disorganized, and Sketchy as Hell
p437
sg89
g426
sg90
I00
sS'title_detail'
p438
g1
(g2
g3
(dp439
g9
Vhttp://www.reddit.com/.rss
p440
sg11
g12
sg13
Nsg14
g437
stRp441
sg36
g430
sg95
VTue, 17 Mar 2015 12:48:28 +0000
p442
sg97
(lp443
g15
aV*
asg99
Vhttp://www.reddit.com/r/news/comments/2zcfh1/mars_one_is_broke_disorganized_and_sketchy_as_hell/
p444
stRp445
ag1
(g2
g3
(dp446
S'summary_detail'
p447
g1
(g2
g3
(dp448
g9
Vhttp://www.reddit.com/.rss
p449
sg11
g53
sg13
Nsg14
V<table> <tr><td> <a href="http://www.reddit.com/r/videos/comments/2zcff4/muhammad_ali_brags_best_brag_ive_ever_seen/"><img alt="Muhammad Ali brags. Best brag I've ever seen." src="http://a.thumbs.redditmedia.com/lhna8fUU4_jMo-jREx7J1LCjpsv4jmJhIvdR_8gtgx8.jpg" title="Muhammad Ali brags. Best brag I've ever seen." /></a> </td><td> submitted by <a href="http://www.reddit.com/user/OnkelMickwald"> OnkelMickwald </a> to <a href="http://www.reddit.com/r/videos/"> videos</a> <br /> <a href="https://www.youtube.com/watch?v=ISBOwJYDTbI">[link]</a> <a href="http://www.reddit.com/r/videos/comments/2zcff4/muhammad_ali_brags_best_brag_ive_ever_seen/">[192 comments]</a> </td></tr></table>
p450
stRp451
sg18
(lp452
g1
(g2
g3
(dp453
g21
Vhttp://www.reddit.com/r/videos/comments/2zcff4/muhammad_ali_brags_best_brag_ive_ever_seen/
p454
sg11
g23
sg24
g25
stRp455
asg72
g73
((I2015
I3
I17
I12
I47
I56
I1
I76
I0
t(dtRp456
sg75
(lp457
g1
(g2
g3
(dp458
g78
Vvideos
p459
sg80
Nsg81
NstRp460
asg35
VMuhammad Ali brags. Best brag I've ever seen.
p461
sg84
(lp462
(dp463
S'url'
p464
Vhttp://a.thumbs.redditmedia.com/lhna8fUU4_jMo-jREx7J1LCjpsv4jmJhIvdR_8gtgx8.jpg
p465
sasg89
g450
sg90
I00
sS'title_detail'
p466
g1
(g2
g3
(dp467
g9
Vhttp://www.reddit.com/.rss
p468
sg11
g12
sg13
Nsg14
g461
stRp469
sg21
V
sg36
g454
sg95
VTue, 17 Mar 2015 12:47:56 +0000
p470
sg97
(lp471
g15
aV*
asg99
Vhttp://www.reddit.com/r/videos/comments/2zcff4/muhammad_ali_brags_best_brag_ive_ever_seen/
p472
stRp473
ag1
(g2
g3
(dp474
S'summary_detail'
p475
g1
(g2
g3
(dp476
g9
Vhttp://www.reddit.com/.rss
p477
sg11
g53
sg13
Nsg14
Vsubmitted by <a href="http://www.reddit.com/user/loptthetreacherous"> loptthetreacherous </a> to <a href="http://www.reddit.com/r/Music/"> Music</a> <br /> <a href="https://www.youtube.com/watch?v=0krxo46Ifbo">[link]</a> <a href="http://www.reddit.com/r/Music/comments/2zc7l8/flogging_molly_whats_left_of_the_flag_folk_punk/">[192 comments]</a>
p478
stRp479
sg18
(lp480
g1
(g2
g3
(dp481
g21
Vhttp://www.reddit.com/r/Music/comments/2zc7l8/flogging_molly_whats_left_of_the_flag_folk_punk/
p482
sg11
g23
sg24
g25
stRp483
asg72
g73
((I2015
I3
I17
I11
I7
I22
I1
I76
I0
t(dtRp484
sg75
(lp485
g1
(g2
g3
(dp486
g78
VMusic
p487
sg80
Nsg81
NstRp488
asg35
VFlogging Molly - What's Left of the Flag [Folk Punk] Happy St. Patrick's Day
p489
sg89
g478
sg90
I00
sS'title_detail'
p490
g1
(g2
g3
(dp491
g9
Vhttp://www.reddit.com/.rss
p492
sg11
g12
sg13
Nsg14
g489
stRp493
sg36
g482
sg95
VTue, 17 Mar 2015 11:07:22 +0000
p494
sg97
(lp495
g15
aV*
asg99
Vhttp://www.reddit.com/r/Music/comments/2zc7l8/flogging_molly_whats_left_of_the_flag_folk_punk/
p496
stRp497
ag1
(g2
g3
(dp498
S'summary_detail'
p499
g1
(g2
g3
(dp500
g9
Vhttp://www.reddit.com/.rss
p501
sg11
g53
sg13
Nsg14
V<table> <tr><td> <a href="http://www.reddit.com/r/dataisbeautiful/comments/2zcspe/69_of_us_parents_believe_their_kids_need_a/"><img alt="69% of U.S. parents believe their kids need a college degree or more to achieve the American Dream" src="http://b.thumbs.redditmedia.com/6p_aqu8CbJgLJPke_0AGbXi5P18Mrwdo5HQJp8PmTas.jpg" title="69% of U.S. parents believe their kids need a college degree or more to achieve the American Dream" /></a> </td><td> submitted by <a href="http://www.reddit.com/user/ckwilson912"> ckwilson912 </a> to <a href="http://www.reddit.com/r/dataisbeautiful/"> dataisbeautiful</a> <br /> <a href="http://www.parenttoolkit.com/index.cfm?utm_campaign=reddit&amp;utm_medium=social&amp;utm_source=reddit&amp;objectid=B32DD6D0-ACA3-11E4-B6B70050569A5318#Section_8">[link]</a> <a href="http://www.reddit.com/r/dataisbeautiful/comments/2zcspe/69_of_us_parents_believe_their_kids_need_a/">[314 comments]</a> </td></tr></table>
p502
stRp503
sg18
(lp504
g1
(g2
g3
(dp505
g21
Vhttp://www.reddit.com/r/dataisbeautiful/comments/2zcspe/69_of_us_parents_believe_their_kids_need_a/
p506
sg11
g23
sg24
g25
stRp507
asg72
g73
((I2015
I3
I17
I14
I50
I48
I1
I76
I0
t(dtRp508
sg75
(lp509
g1
(g2
g3
(dp510
g78
Vdataisbeautiful
p511
sg80
Nsg81
NstRp512
asg35
V69\u005c% of U.S. parents believe their kids need a college degree or more to achieve the American Dream
p513
sg84
(lp514
(dp515
S'url'
p516
Vhttp://b.thumbs.redditmedia.com/6p_aqu8CbJgLJPke_0AGbXi5P18Mrwdo5HQJp8PmTas.jpg
p517
sasg89
V<table> <tr><td> <a href="http://www.reddit.com/r/dataisbeautiful/comments/2zcspe/69_of_us_parents_believe_their_kids_need_a/"><img alt="69\u005c% of U.S. parents believe their kids need a college degree or more to achieve the American Dream" src="http://b.thumbs.redditmedia.com/6p_aqu8CbJgLJPke_0AGbXi5P18Mrwdo5HQJp8PmTas.jpg" title="69\u005c% of U.S. parents believe their kids need a college degree or more to achieve the American Dream" /></a> </td><td> submitted by <a href="http://www.reddit.com/user/ckwilson912"> ckwilson912 </a> to <a href="http://www.reddit.com/r/dataisbeautiful/"> dataisbeautiful</a> <br /> <a href="http://www.parenttoolkit.com/index.cfm?utm_campaign=reddit&amp;utm_medium=social&amp;utm_source=reddit&amp;objectid=B32DD6D0-ACA3-11E4-B6B70050569A5318#Section_8">[link]</a> <a href="http://www.reddit.com/r/dataisbeautiful/comments/2zcspe/69_of_us_parents_believe_their_kids_need_a/">[314 comments]</a> </td></tr></table>
p518
sg90
I00
sS'title_detail'
p519
g1
(g2
g3
(dp520
g9
Vhttp://www.reddit.com/.rss
p521
sg11
g12
sg13
Nsg14
V69% of U.S. parents believe their kids need a college degree or more to achieve the American Dream
p522
stRp523
sg21
V
sg36
g506
sg95
VTue, 17 Mar 2015 14:50:48 +0000
p524
sg97
(lp525
g15
aV*
asg99
Vhttp://www.reddit.com/r/dataisbeautiful/comments/2zcspe/69_of_us_parents_believe_their_kids_need_a/
p526
stRp527
ag1
(g2
g3
(dp528
S'summary_detail'
p529
g1
(g2
g3
(dp530
g9
Vhttp://www.reddit.com/.rss
p531
sg11
g53
sg13
Nsg14
Vsubmitted by <a href="http://www.reddit.com/user/the_phet"> the_phet </a> to <a href="http://www.reddit.com/r/science/"> science</a> <br /> <a href="http://med.stanford.edu/news/all-news/2015/03/scientists-discover-how-to-change-human-leukemia-cells.html">[link]</a> <a href="http://www.reddit.com/r/science/comments/2zcnju/scientists_discover_how_to_change_human_leukemia/">[21 comments]</a>
p532
stRp533
sg18
(lp534
g1
(g2
g3
(dp535
g21
Vhttp://www.reddit.com/r/science/comments/2zcnju/scientists_discover_how_to_change_human_leukemia/
p536
sg11
g23
sg24
g25
stRp537
asg72
g73
((I2015
I3
I17
I14
I6
I11
I1
I76
I0
t(dtRp538
sg75
(lp539
g1
(g2
g3
(dp540
g78
Vscience
p541
sg80
Nsg81
NstRp542
asg35
VScientists discover how to change human leukemia cells into harmless immune cells
p543
sg89
g532
sg90
I00
sS'title_detail'
p544
g1
(g2
g3
(dp545
g9
Vhttp://www.reddit.com/.rss
p546
sg11
g12
sg13
Nsg14
g543
stRp547
sg36
g536
sg95
VTue, 17 Mar 2015 14:06:11 +0000
p548
sg97
(lp549
g15
aV*
asg99
Vhttp://www.reddit.com/r/science/comments/2zcnju/scientists_discover_how_to_change_human_leukemia/
p550
stRp551
ag1
(g2
g3
(dp552
S'summary_detail'
p553
g1
(g2
g3
(dp554
g9
Vhttp://www.reddit.com/.rss
p555
sg11
g53
sg13
Nsg14
V<table> <tr><td> <a href="http://www.reddit.com/r/mildlyinteresting/comments/2zbfjb/my_buzz_magnet_broke_and_now_the_pieces_wont_fit/"><img alt="My buzz magnet broke and now the pieces wont fit back together because they repel each other." src="http://b.thumbs.redditmedia.com/ymqmNtOiaPPabudj4Z2I5U_yzMsAcR2oCrJyC4uEOJI.jpg" title="My buzz magnet broke and now the pieces wont fit back together because they repel each other." /></a> </td><td> submitted by <a href="http://www.reddit.com/user/ivebeenhereallsummer"> ivebeenhereallsummer </a> to <a href="http://www.reddit.com/r/mildlyinteresting/"> mildlyinteresting</a> <br /> <a href="http://imgur.com/j7mbRo0.jpg">[link]</a> <a href="http://www.reddit.com/r/mildlyinteresting/comments/2zbfjb/my_buzz_magnet_broke_and_now_the_pieces_wont_fit/">[486 comments]</a> </td></tr></table>
p556
stRp557
sg18
(lp558
g1
(g2
g3
(dp559
g21
Vhttp://www.reddit.com/r/mildlyinteresting/comments/2zbfjb/my_buzz_magnet_broke_and_now_the_pieces_wont_fit/
p560
sg11
g23
sg24
g25
stRp561
asg72
g73
((I2015
I3
I17
I4
I25
I10
I1
I76
I0
t(dtRp562
sg75
(lp563
g1
(g2
g3
(dp564
g78
Vmildlyinteresting
p565
sg80
Nsg81
NstRp566
asg35
VMy buzz magnet broke and now the pieces wont fit back together because they repel each other.
p567
sg84
(lp568
(dp569
S'url'
p570
Vhttp://b.thumbs.redditmedia.com/ymqmNtOiaPPabudj4Z2I5U_yzMsAcR2oCrJyC4uEOJI.jpg
p571
sasg89
g556
sg90
I00
sS'title_detail'
p572
g1
(g2
g3
(dp573
g9
Vhttp://www.reddit.com/.rss
p574
sg11
g12
sg13
Nsg14
g567
stRp575
sg21
V
sg36
g560
sg95
VTue, 17 Mar 2015 04:25:10 +0000
p576
sg97
(lp577
g15
aV*
asg99
Vhttp://www.reddit.com/r/mildlyinteresting/comments/2zbfjb/my_buzz_magnet_broke_and_now_the_pieces_wont_fit/
p578
stRp579
ag1
(g2
g3
(dp580
S'summary_detail'
p581
g1
(g2
g3
(dp582
g9
Vhttp://www.reddit.com/.rss
p583
sg11
g53
sg13
Nsg14
Vsubmitted by <a href="http://www.reddit.com/user/F9R"> F9R </a> to <a href="http://www.reddit.com/r/Showerthoughts/"> Showerthoughts</a> <br /> <a href="http://www.reddit.com/r/Showerthoughts/comments/2zbotx/thanks_to_tinder_ive_been_fingering_girls_left/">[link]</a> <a href="http://www.reddit.com/r/Showerthoughts/comments/2zbotx/thanks_to_tinder_ive_been_fingering_girls_left/">[152 comments]</a>
p584
stRp585
sg18
(lp586
g1
(g2
g3
(dp587
g21
Vhttp://www.reddit.com/r/Showerthoughts/comments/2zbotx/thanks_to_tinder_ive_been_fingering_girls_left/
p588
sg11
g23
sg24
g25
stRp589
asg72
g73
((I2015
I3
I17
I6
I11
I59
I1
I76
I0
t(dtRp590
sg75
(lp591
g1
(g2
g3
(dp592
g78
VShowerthoughts
p593
sg80
Nsg81
NstRp594
asg35
VThanks to tinder, I've been fingering girls left and right!
p595
sg89
g584
sg90
I00
sS'title_detail'
p596
g1
(g2
g3
(dp597
g9
Vhttp://www.reddit.com/.rss
p598
sg11
g12
sg13
Nsg14
g595
stRp599
sg36
g588
sg95
VTue, 17 Mar 2015 06:11:59 +0000
p600
sg97
(lp601
g15
aV*
asg99
Vhttp://www.reddit.com/r/Showerthoughts/comments/2zbotx/thanks_to_tinder_ive_been_fingering_girls_left/
p602
stRp603
ag1
(g2
g3
(dp604
S'summary_detail'
p605
g1
(g2
g3
(dp606
g9
Vhttp://www.reddit.com/.rss
p607
sg11
g53
sg13
Nsg14
V<table> <tr><td> <a href="http://www.reddit.com/r/GetMotivated/comments/2zcfuv/image_find_a_way/"><img alt="[Image] Find a Way" src="http://b.thumbs.redditmedia.com/ep_zplmbsMnOQiV9Ey_bVGjEG0VGTbIhnPEhfO_6sOk.jpg" title="[Image] Find a Way" /></a> </td><td> submitted by <a href="http://www.reddit.com/user/Amano85"> Amano85 </a> to <a href="http://www.reddit.com/r/GetMotivated/"> GetMotivated</a> <br /> <a href="http://www.rebooti.com/wp-content/uploads/2015/03/Motivational-Way.jpg">[link]</a> <a href="http://www.reddit.com/r/GetMotivated/comments/2zcfuv/image_find_a_way/">[38 comments]</a> </td></tr></table>
p608
stRp609
sg18
(lp610
g1
(g2
g3
(dp611
g21
Vhttp://www.reddit.com/r/GetMotivated/comments/2zcfuv/image_find_a_way/
p612
sg11
g23
sg24
g25
stRp613
asg72
g73
((I2015
I3
I17
I12
I52
I57
I1
I76
I0
t(dtRp614
sg75
(lp615
g1
(g2
g3
(dp616
g78
VGetMotivated
p617
sg80
Nsg81
NstRp618
asg35
V[Image] Find a Way
p619
sg84
(lp620
(dp621
S'url'
p622
Vhttp://b.thumbs.redditmedia.com/ep_zplmbsMnOQiV9Ey_bVGjEG0VGTbIhnPEhfO_6sOk.jpg
p623
sasg89
g608
sg90
I00
sS'title_detail'
p624
g1
(g2
g3
(dp625
g9
Vhttp://www.reddit.com/.rss
p626
sg11
g12
sg13
Nsg14
g619
stRp627
sg21
V
sg36
g612
sg95
VTue, 17 Mar 2015 12:52:57 +0000
p628
sg97
(lp629
g15
aV*
asg99
Vhttp://www.reddit.com/r/GetMotivated/comments/2zcfuv/image_find_a_way/
p630
stRp631
ag1
(g2
g3
(dp632
S'summary_detail'
p633
g1
(g2
g3
(dp634
g9
Vhttp://www.reddit.com/.rss
p635
sg11
g53
sg13
Nsg14
V<table> <tr><td> <a href="http://www.reddit.com/r/EarthPorn/comments/2zbuey/oc_one_of_my_pics_from_the_top_of_the_stairway_to/"><img alt="[OC] One of my pics from the top of the stairway to heaven Oahu. (1334x750)" src="http://a.thumbs.redditmedia.com/aEeMYhoiy0vbVa2QDb8CA3qt0lEckgXOq2ZKp2FYWv0.jpg" title="[OC] One of my pics from the top of the stairway to heaven Oahu. (1334x750)" /></a> </td><td> submitted by <a href="http://www.reddit.com/user/karmais4suckers"> karmais4suckers </a> to <a href="http://www.reddit.com/r/EarthPorn/"> EarthPorn</a> <br /> <a href="http://imgur.com/Ygmy6YP">[link]</a> <a href="http://www.reddit.com/r/EarthPorn/comments/2zbuey/oc_one_of_my_pics_from_the_top_of_the_stairway_to/">[40 comments]</a> </td></tr></table>
p636
stRp637
sg18
(lp638
g1
(g2
g3
(dp639
g21
Vhttp://www.reddit.com/r/EarthPorn/comments/2zbuey/oc_one_of_my_pics_from_the_top_of_the_stairway_to/
p640
sg11
g23
sg24
g25
stRp641
asg72
g73
((I2015
I3
I17
I7
I32
I15
I1
I76
I0
t(dtRp642
sg75
(lp643
g1
(g2
g3
(dp644
g78
VEarthPorn
p645
sg80
Nsg81
NstRp646
asg35
V[OC] One of my pics from the top of the stairway to heaven Oahu. (1334x750)
p647
sg84
(lp648
(dp649
S'url'
p650
Vhttp://a.thumbs.redditmedia.com/aEeMYhoiy0vbVa2QDb8CA3qt0lEckgXOq2ZKp2FYWv0.jpg
p651
sasg89
g636
sg90
I00
sS'title_detail'
p652
g1
(g2
g3
(dp653
g9
Vhttp://www.reddit.com/.rss
p654
sg11
g12
sg13
Nsg14
g647
stRp655
sg21
V
sg36
g640
sg95
VTue, 17 Mar 2015 07:32:15 +0000
p656
sg97
(lp657
g15
aV*
asg99
Vhttp://www.reddit.com/r/EarthPorn/comments/2zbuey/oc_one_of_my_pics_from_the_top_of_the_stairway_to/
p658
stRp659
ag1
(g2
g3
(dp660
S'summary_detail'
p661
g1
(g2
g3
(dp662
g9
Vhttp://www.reddit.com/.rss
p663
sg11
g53
sg13
Nsg14
V<table> <tr><td> <a href="http://www.reddit.com/r/television/comments/2zcabs/robert_durst_officially_charged_with_murder_of/"><img alt="Robert Durst Officially Charged with Murder of Susan Berman" src="http://a.thumbs.redditmedia.com/YIz1llOvSNay2NGkHybomPeyTJOSmaGLvWArDPLV_e0.jpg" title="Robert Durst Officially Charged with Murder of Susan Berman" /></a> </td><td> submitted by <a href="http://www.reddit.com/user/djuric_tamara"> djuric_tamara </a> to <a href="http://www.reddit.com/r/television/"> television</a> <br /> <a href="http://www.varietyreports.com/2015/03/robert-durst-officially-charged-with.html">[link]</a> <a href="http://www.reddit.com/r/television/comments/2zcabs/robert_durst_officially_charged_with_murder_of/">[224 comments]</a> </td></tr></table>
p664
stRp665
sg18
(lp666
g1
(g2
g3
(dp667
g21
Vhttp://www.reddit.com/r/television/comments/2zcabs/robert_durst_officially_charged_with_murder_of/
p668
sg11
g23
sg24
g25
stRp669
asg72
g73
((I2015
I3
I17
I11
I45
I13
I1
I76
I0
t(dtRp670
sg75
(lp671
g1
(g2
g3
(dp672
g78
Vtelevision
p673
sg80
Nsg81
NstRp674
asg35
VRobert Durst Officially Charged with Murder of Susan Berman
p675
sg84
(lp676
(dp677
S'url'
p678
Vhttp://a.thumbs.redditmedia.com/YIz1llOvSNay2NGkHybomPeyTJOSmaGLvWArDPLV_e0.jpg
p679
sasg89
g664
sg90
I00
sS'title_detail'
p680
g1
(g2
g3
(dp681
g9
Vhttp://www.reddit.com/.rss
p682
sg11
g12
sg13
Nsg14
g675
stRp683
sg21
V
sg36
g668
sg95
VTue, 17 Mar 2015 11:45:13 +0000
p684
sg97
(lp685
g15
aV*
asg99
Vhttp://www.reddit.com/r/television/comments/2zcabs/robert_durst_officially_charged_with_murder_of/
p686
stRp687
ag1
(g2
g3
(dp688
S'summary_detail'
p689
g1
(g2
g3
(dp690
g9
Vhttp://www.reddit.com/.rss
p691
sg11
g53
sg13
Nsg14
V<table> <tr><td> <a href="http://www.reddit.com/r/creepy/comments/2zbkwo/random_creepy_pictures/"><img alt="Random creepy pictures" src="http://a.thumbs.redditmedia.com/aWZ8IEzpgA098-2yu-g48SrLICp0of_s79KazVIDHm8.jpg" title="Random creepy pictures" /></a> </td><td> submitted by <a href="http://www.reddit.com/user/SnakeEyes707"> SnakeEyes707 </a> to <a href="http://www.reddit.com/r/creepy/"> creepy</a> <br /> <a href="http://imgur.com/a/ySqo2">[link]</a> <a href="http://www.reddit.com/r/creepy/comments/2zbkwo/random_creepy_pictures/">[316 comments]</a> </td></tr></table>
p692
stRp693
sg18
(lp694
g1
(g2
g3
(dp695
g21
Vhttp://www.reddit.com/r/creepy/comments/2zbkwo/random_creepy_pictures/
p696
sg11
g23
sg24
g25
stRp697
asg72
g73
((I2015
I3
I17
I5
I23
I0
I1
I76
I0
t(dtRp698
sg75
(lp699
g1
(g2
g3
(dp700
g78
Vcreepy
p701
sg80
Nsg81
NstRp702
asg35
VRandom creepy pictures
p703
sg84
(lp704
(dp705
S'url'
p706
Vhttp://a.thumbs.redditmedia.com/aWZ8IEzpgA098-2yu-g48SrLICp0of_s79KazVIDHm8.jpg
p707
sasg89
g692
sg90
I00
sS'title_detail'
p708
g1
(g2
g3
(dp709
g9
Vhttp://www.reddit.com/.rss
p710
sg11
g12
sg13
Nsg14
g703
stRp711
sg21
V
sg36
g696
sg95
VTue, 17 Mar 2015 05:23:00 +0000
p712
sg97
(lp713
g15
aV*
asg99
Vhttp://www.reddit.com/r/creepy/comments/2zbkwo/random_creepy_pictures/
p714
stRp715
ag1
(g2
g3
(dp716
S'summary_detail'
p717
g1
(g2
g3
(dp718
g9
Vhttp://www.reddit.com/.rss
p719
sg11
g53
sg13
Nsg14
Vsubmitted by <a href="http://www.reddit.com/user/SethChapla"> SethChapla </a> to <a href="http://www.reddit.com/r/DIY/"> DIY</a> <br /> <a href="https://imgur.com/a/c7bAz">[link]</a> <a href="http://www.reddit.com/r/DIY/comments/2zbyme/i_built_this_diy_audio_mixing_desk_and_drank_lots/">[79 comments]</a>
p720
stRp721
sg18
(lp722
g1
(g2
g3
(dp723
g21
Vhttp://www.reddit.com/r/DIY/comments/2zbyme/i_built_this_diy_audio_mixing_desk_and_drank_lots/
p724
sg11
g23
sg24
g25
stRp725
asg72
g73
((I2015
I3
I17
I8
I45
I9
I1
I76
I0
t(dtRp726
sg75
(lp727
g1
(g2
g3
(dp728
g78
VDIY
p729
sg80
Nsg81
NstRp730
asg35
VI built this DIY audio mixing desk, and drank lots of beer during the process (instructions for drinking lots of beer not included)
p731
sg89
g720
sg90
I00
sS'title_detail'
p732
g1
(g2
g3
(dp733
g9
Vhttp://www.reddit.com/.rss
p734
sg11
g12
sg13
Nsg14
g731
stRp735
sg36
g724
sg95
VTue, 17 Mar 2015 08:45:09 +0000
p736
sg97
(lp737
g15
aV*
asg99
Vhttp://www.reddit.com/r/DIY/comments/2zbyme/i_built_this_diy_audio_mixing_desk_and_drank_lots/
p738
stRp739
asS'canto_update'
p740
F1426612293.6235731
sS'headers'
p741
(dp742
S'x-xss-protection'
p743
S'1; mode=block'
p744
sS'x-content-type-options'
p745
S'nosniff'
p746
sS'transfer-encoding'
p747
S'chunked'
p748
sS'set-cookie'
p749
S'__cfduid=d76ea11493d5c0dece65a65ee73ba035a1426612293; expires=Wed, 16-Mar-16 17:11:33 GMT; path=/; domain=.reddit.com; HttpOnly'
p750
sS'cf-cache-status'
p751
S'HIT'
p752
sS'vary'
p753
S'Accept-Encoding'
p754
sS'x-moose'
p755
S'majestic'
p756
sS'connection'
p757
S'close'
p758
sS'x-ua-compatible'
p759
S'IE=edge'
p760
sS'cache-control'
p761
S'no-cache'
p762
sS'date'
p763
S'Tue, 17 Mar 2015 17:11:33 GMT'
p764
sS'x-frame-options'
p765
S'SAMEORIGIN'
p766
sS'server'
p767
S'cloudflare-nginx'
p768
sS'content-type'
p769
S'text/xml; charset=UTF-8'
p770
sS'cf-ray'
p771
S'1c8a514f4d59184c-EWR'
p772
ssS'version'
p773
Vrss20
p774
sg97
(lp775
sg21
Vhttp://www.reddit.com/.rss
p776
sS'namespaces'
p777
(dp778
S''
Vhttp://www.w3.org/2005/Atom
p779
sS'media'
p780
Vhttp://search.yahoo.com/mrss/
p781
sS'dc'
p782
Vhttp://purl.org/dc/elements/1.1/
p783
ssS'canto_version'
p784
(I0
I7
I10
tp785
stRp786
.