(dp1
S'canto_version'
p2
(I0
I7
I10
tp3
sS'canto_update'
p4
I0
sS'canto_state'
p5
(lp6
sS'entries'
p7
(lp8
(dp9
Vid
p10
Vcanto-internal
p11
sVcanto_state
p12
(lp13
S'*'
asVdescription
p14
VThere's no content in this feed. It's possible that it hasn't been fetched yet or an error was encountered. Check your fetchlog.
p15
sVtitle
p16
VNo content.
p17
sas.