ccopy_reg
_reconstructor
p1
(cfeedparser
FeedParserDict
p2
c__builtin__
dict
p3
(dp4
S'feed'
p5
g1
(g2
g3
(dp6
S'updated'
p7
V2015-03-17T17:06:10+00:00
p8
sS'subtitle'
p9
VNews for nerds, stuff that matters
p10
sS'updated_parsed'
p11
ctime
struct_time
p12
((I2015
I3
I17
I17
I6
I10
I1
I76
I0
t(dtRp13
sS'links'
p14
(lp15
g1
(g2
g3
(dp16
S'href'
p17
Vhttp://slashdot.org/
p18
sS'type'
p19
Vtext/html
p20
sS'rel'
p21
Valternate
p22
stRp23
ag1
(g2
g3
(dp24
S'href'
p25
Vhttp://rss.slashdot.org/Slashdot/slashdot
p26
sS'type'
p27
Vapplication/rdf+xml
p28
sS'rel'
p29
Vself
p30
stRp31
ag1
(g2
g3
(dp32
S'href'
p33
Vhttp://pubsubhubbub.appspot.com/
p34
sg19
g20
sS'rel'
p35
Vhub
p36
stRp37
asS'tags'
p38
(lp39
g1
(g2
g3
(dp40
S'term'
p41
VTechnology
p42
sS'scheme'
p43
NsS'label'
p44
NstRp45
asS'image'
p46
g1
(g2
g3
(dp47
g14
(lp48
g1
(g2
g3
(dp49
g19
g20
sg21
g22
stRp50
astRp51
sS'rdf_seq'
p52
V
sS'feedburner_info'
p53
(dp54
S'uri'
p55
Vslashdot/slashdot
p56
ssS'link'
p57
g18
sS'authors'
p58
(lp59
g1
(g2
g3
(dtRp60
asS'rights_detail'
p61
g1
(g2
g3
(dp62
S'base'
p63
Vhttp://rss.slashdot.org/slashdot/Slashdot
p64
sg19
Vtext/plain
p65
sS'language'
p66
NsS'value'
p67
VCopyright 1997-2015, Dice. All Rights Reserved. Slashdot is a Dice Holdings, Inc. service
p68
stRp69
sS'publisher_detail'
p70
g1
(g2
g3
(dp71
S'name'
p72
VDice
p73
stRp74
sS'author_detail'
p75
g1
(g2
g3
(dp76
S'email'
p77
Vhelp@slashdot.org
p78
stRp79
sS'sy_updatebase'
p80
V1970-01-01T00:00+00:00
p81
sS'publisher'
p82
g73
sg66
Ven-us
p83
sS'author'
p84
g78
sS'rights'
p85
g68
sS'rdf_li'
p86
(dp87
S'rdf:resource'
p88
Vhttp://yro.slashdot.org/story/15/03/16/2329254/how-police-fight-to-keep-use-of-stingrays-secret?utm_source=rss1.0mainlinkanon&utm_medium=feed
p89
ssS'subtitle_detail'
p90
g1
(g2
g3
(dp91
g63
Vhttp://rss.slashdot.org/slashdot/Slashdot
p92
sg19
Vtext/html
p93
sg66
Nsg67
g10
stRp94
sS'title_detail'
p95
g1
(g2
g3
(dp96
g63
Vhttp://rss.slashdot.org/slashdot/Slashdot
p97
sg19
Vtext/plain
p98
sg66
Nsg67
VSlashdot
p99
stRp100
sS'sy_updateperiod'
p101
Vhourly
p102
sS'title'
p103
g99
sS'entries'
p104
V
sS'sy_updatefrequency'
p105
V1
sS'textinput'
p106
g1
(g2
g3
(dp107
g72
Vquery
p108
sg14
(lp109
g1
(g2
g3
(dp110
g19
g20
sg21
g22
stRp111
astRp112
stRp113
sS'status'
p114
I200
sg7
S'Tue, 17 Mar 2015 17:07:17 GMT'
p115
sg11
g12
((I2015
I3
I17
I17
I7
I17
I1
I76
I0
t(dtRp116
sS'encoding'
p117
VISO-8859-1
p118
sS'bozo'
p119
I0
sg104
(lp120
g1
(g2
g3
(dp121
S'summary_detail'
p122
g1
(g2
g3
(dp123
g63
Vhttp://rss.slashdot.org/slashdot/Slashdot
p124
sg19
g93
sg66
Nsg67
VA couple of weeks ago you had a chance to ask former Vice President of One Laptop per Child, and current Senior Director of the Global Learning XPRIZE Matt Keller about education and the competition. The XPRIZE challenges teams from around the world to develop open source software that will allow children in developing countries to teach themselves basic reading, writing and arithmetic with a Grand Prize of $10 million. Below you will find his answers to your questions.<p><div class="share_submission">\u000a<a class="slashpop" href="http://twitter.com/home?status=Global+Learning+XPRIZE+Senior+Director+Matt+Keller+Answers+Your+Questions%3A+http%3A%2F%2Fbit.ly%2F1BtWflm"><img src="http://a.fsdn.com/sd/twitter_icon_large.png" /></a>\u000a<a class="slashpop" href="http://www.facebook.com/sharer.php?u=http%3A%2F%2Fnews.slashdot.org%2Fstory%2F15%2F03%2F16%2F1428238%2Fglobal-learning-xprize-senior-director-matt-keller-answers-your-questions%3Futm_source%3Dslashdot%26utm_medium%3Dfacebook"><img src="http://a.fsdn.com/sd/facebook_icon_large.png" /></a>\u000a\u000a<a class="nobg" href="http://plus.google.com/share?url=http://news.slashdot.org/story/15/03/16/1428238/global-learning-xprize-senior-director-matt-keller-answers-your-questions?utm_source=slashdot&amp;utm_medium=googleplus"><img alt="Share on Google+" src="http://www.gstatic.com/images/icons/gplus-16.png" /></a>                                                                                                                                                                              \u000a\u000a\u000a\u000a</div></p><p><a href="http://news.slashdot.org/story/15/03/16/1428238/global-learning-xprize-senior-director-matt-keller-answers-your-questions?utm_source=rss1.0moreanon&amp;utm_medium=feed">Read more of this story</a> at Slashdot.</p><img alt="" height="1" src="http://feeds.feedburner.com/~r/Slashdot/slashdot/~4/KisBdI8ozvw" width="1" />
p125
stRp126
sg11
g12
((I2015
I3
I17
I16
I59
I0
I1
I76
I0
t(dtRp127
sg14
(lp128
g1
(g2
g3
(dp129
g17
Vhttp://rss.slashdot.org/~r/Slashdot/slashdot/~3/KisBdI8ozvw/global-learning-xprize-senior-director-matt-keller-answers-your-questions
p130
sg19
g20
sg21
g22
stRp131
asg38
(lp132
g1
(g2
g3
(dp133
g41
Vmoney
p134
sg43
Nsg44
NstRp135
asS'slash_department'
p136
Vhere-they-are
p137
sS'feedburner_origlink'
p138
Vhttp://news.slashdot.org/story/15/03/16/1428238/global-learning-xprize-senior-director-matt-keller-answers-your-questions?utm_source=rss1.0mainlinkanon&utm_medium=feed
p139
sg7
V2015-03-17T16:59:00+00:00
p140
sS'slash_section'
p141
Vnews
p142
sg57
g130
sg58
(lp143
g1
(g2
g3
(dtRp144
asS'author_detail'
p145
g1
(g2
g3
(dp146
g72
Vsamzenpus
p147
stRp148
sS'slash_hit_parade'
p149
V1,1,0,0,0,0,0
p150
sS'id'
p151
Vhttp://news.slashdot.org/story/15/03/16/1428238/global-learning-xprize-senior-director-matt-keller-answers-your-questions?utm_source=rss1.0mainlinkanon&utm_medium=feed
p152
sS'slash_comments'
p153
V1
sg103
VGlobal Learning XPRIZE Senior Director Matt Keller Answers Your Questions
p154
sg84
g147
sS'summary'
p155
VA couple of weeks ago you had a chance to ask former Vice President of One Laptop per Child, and current Senior Director of the Global Learning XPRIZE Matt Keller about education and the competition. The XPRIZE challenges teams from around the world to develop open source software that will allow children in developing countries to teach themselves basic reading, writing and arithmetic with a Grand Prize of $10 million. Below you will find his answers to your questions.<p><div class="share_submission">\u000a<a class="slashpop" href="http://twitter.com/home?status=Global+Learning+XPRIZE+Senior+Director+Matt+Keller+Answers+Your+Questions\u005c%3A+http\u005c%3A\u005c%2F\u005c%2Fbit.ly\u005c%2F1BtWflm"><img src="http://a.fsdn.com/sd/twitter_icon_large.png" /></a>\u000a<a class="slashpop" href="http://www.facebook.com/sharer.php?u=http\u005c%3A\u005c%2F\u005c%2Fnews.slashdot.org\u005c%2Fstory\u005c%2F15\u005c%2F03\u005c%2F16\u005c%2F1428238\u005c%2Fglobal-learning-xprize-senior-director-matt-keller-answers-your-questions\u005c%3Futm_source\u005c%3Dslashdot\u005c%26utm_medium\u005c%3Dfacebook"><img src="http://a.fsdn.com/sd/facebook_icon_large.png" /></a>\u000a\u000a<a class="nobg" href="http://plus.google.com/share?url=http://news.slashdot.org/story/15/03/16/1428238/global-learning-xprize-senior-director-matt-keller-answers-your-questions?utm_source=slashdot&amp;utm_medium=googleplus"><img alt="Share on Google+" src="http://www.gstatic.com/images/icons/gplus-16.png" /></a>                                                                                                                                                                              \u000a\u000a\u000a\u000a</div></p><p><a href="http://news.slashdot.org/story/15/03/16/1428238/global-learning-xprize-senior-director-matt-keller-answers-your-questions?utm_source=rss1.0moreanon&amp;utm_medium=feed">Read more of this story</a> at Slashdot.</p><img alt="" height="1" src="http://feeds.feedburner.com/~r/Slashdot/slashdot/~4/KisBdI8ozvw" width="1" />
p156
sS'title_detail'
p157
g1
(g2
g3
(dp158
g63
Vhttp://rss.slashdot.org/slashdot/Slashdot
p159
sg19
g98
sg66
Nsg67
g154
stRp160
sS'canto_state'
p161
(lp162
g99
aV*
astRp163
ag1
(g2
g3
(dp164
S'summary_detail'
p165
g1
(g2
g3
(dp166
g63
Vhttp://rss.slashdot.org/slashdot/Slashdot
p167
sg19
g93
sg66
Nsg67
Vitwbennett writes In the course of trying to find out how many servers and devices are still vulnerable to the Web security flaw known as FREAK, researchers at Royal Holloway of the University of London found something else of interest: Many hosts (either servers or other Internet-connected devices) share the same 512-bit public key. In one egregious example, 28,394 routers running a SSL VPN module all use the same 512-bit public RSA key.<p><div class="share_submission">\u000a<a class="slashpop" href="http://twitter.com/home?status=Researchers+Find+Same+RSA+Encryption+Key+Used+28%2C000+Times%3A+http%3A%2F%2Fbit.ly%2F1EZpgwN"><img src="http://a.fsdn.com/sd/twitter_icon_large.png" /></a>\u000a<a class="slashpop" href="http://www.facebook.com/sharer.php?u=http%3A%2F%2Fit.slashdot.org%2Fstory%2F15%2F03%2F17%2F1556225%2Fresearchers-find-same-rsa-encryption-key-used-28000-times%3Futm_source%3Dslashdot%26utm_medium%3Dfacebook"><img src="http://a.fsdn.com/sd/facebook_icon_large.png" /></a>\u000a\u000a<a class="nobg" href="http://plus.google.com/share?url=http://it.slashdot.org/story/15/03/17/1556225/researchers-find-same-rsa-encryption-key-used-28000-times?utm_source=slashdot&amp;utm_medium=googleplus"><img alt="Share on Google+" src="http://www.gstatic.com/images/icons/gplus-16.png" /></a>                                                                                                                                                                              \u000a\u000a\u000a\u000a</div></p><p><a href="http://it.slashdot.org/story/15/03/17/1556225/researchers-find-same-rsa-encryption-key-used-28000-times?utm_source=rss1.0moreanon&amp;utm_medium=feed">Read more of this story</a> at Slashdot.</p><img alt="" height="1" src="http://feeds.feedburner.com/~r/Slashdot/slashdot/~4/ZdJiJaFPjVM" width="1" />
p168
stRp169
sg11
g12
((I2015
I3
I17
I16
I13
I0
I1
I76
I0
t(dtRp170
sg14
(lp171
g1
(g2
g3
(dp172
g17
Vhttp://rss.slashdot.org/~r/Slashdot/slashdot/~3/ZdJiJaFPjVM/researchers-find-same-rsa-encryption-key-used-28000-times
p173
sg19
g20
sg21
g22
stRp174
asg38
(lp175
g1
(g2
g3
(dp176
g41
Vsecurity
p177
sg43
Nsg44
NstRp178
asS'slash_department'
p179
Vwell-if-it-workef-for-that-guy
p180
sS'feedburner_origlink'
p181
Vhttp://it.slashdot.org/story/15/03/17/1556225/researchers-find-same-rsa-encryption-key-used-28000-times?utm_source=rss1.0mainlinkanon&utm_medium=feed
p182
sg7
V2015-03-17T16:13:00+00:00
p183
sS'slash_section'
p184
Vit
p185
sg57
g173
sg58
(lp186
g1
(g2
g3
(dtRp187
asS'author_detail'
p188
g1
(g2
g3
(dp189
g72
Vtimothy
p190
stRp191
sS'slash_hit_parade'
p192
V32,32,21,18,7,5,2
p193
sg151
Vhttp://it.slashdot.org/story/15/03/17/1556225/researchers-find-same-rsa-encryption-key-used-28000-times?utm_source=rss1.0mainlinkanon&utm_medium=feed
p194
sS'slash_comments'
p195
V32
p196
sg103
VResearchers Find Same RSA Encryption Key Used 28,000 Times
p197
sg84
g190
sg155
Vitwbennett writes In the course of trying to find out how many servers and devices are still vulnerable to the Web security flaw known as FREAK, researchers at Royal Holloway of the University of London found something else of interest: Many hosts (either servers or other Internet-connected devices) share the same 512-bit public key. In one egregious example, 28,394 routers running a SSL VPN module all use the same 512-bit public RSA key.<p><div class="share_submission">\u000a<a class="slashpop" href="http://twitter.com/home?status=Researchers+Find+Same+RSA+Encryption+Key+Used+28\u005c%2C000+Times\u005c%3A+http\u005c%3A\u005c%2F\u005c%2Fbit.ly\u005c%2F1EZpgwN"><img src="http://a.fsdn.com/sd/twitter_icon_large.png" /></a>\u000a<a class="slashpop" href="http://www.facebook.com/sharer.php?u=http\u005c%3A\u005c%2F\u005c%2Fit.slashdot.org\u005c%2Fstory\u005c%2F15\u005c%2F03\u005c%2F17\u005c%2F1556225\u005c%2Fresearchers-find-same-rsa-encryption-key-used-28000-times\u005c%3Futm_source\u005c%3Dslashdot\u005c%26utm_medium\u005c%3Dfacebook"><img src="http://a.fsdn.com/sd/facebook_icon_large.png" /></a>\u000a\u000a<a class="nobg" href="http://plus.google.com/share?url=http://it.slashdot.org/story/15/03/17/1556225/researchers-find-same-rsa-encryption-key-used-28000-times?utm_source=slashdot&amp;utm_medium=googleplus"><img alt="Share on Google+" src="http://www.gstatic.com/images/icons/gplus-16.png" /></a>                                                                                                                                                                              \u000a\u000a\u000a\u000a</div></p><p><a href="http://it.slashdot.org/story/15/03/17/1556225/researchers-find-same-rsa-encryption-key-used-28000-times?utm_source=rss1.0moreanon&amp;utm_medium=feed">Read more of this story</a> at Slashdot.</p><img alt="" height="1" src="http://feeds.feedburner.com/~r/Slashdot/slashdot/~4/ZdJiJaFPjVM" width="1" />
p198
sS'title_detail'
p199
g1
(g2
g3
(dp200
g63
Vhttp://rss.slashdot.org/slashdot/Slashdot
p201
sg19
g98
sg66
Nsg67
g197
stRp202
sg161
(lp203
g99
aV*
astRp204
ag1
(g2
g3
(dp205
S'summary_detail'
p206
g1
(g2
g3
(dp207
g63
Vhttp://rss.slashdot.org/slashdot/Slashdot
p208
sg19
g93
sg66
Nsg67
VCIStud writes The Audio Engineering Society (AES) has released its new 3D Audio Standard (AES69-2015), covering topics such as binaural listening, which is growing due to increased usage of smartphones, tablets and other individual entertainment systems that offer audio using headphones. AES states that an understanding of the way that the listener experiences binaural sound, expressed as head-related transfer functions (HRTF) facilitates the way to 3D personal audio. The standard also looks into convolution-based reverberation processors in 3D virtual audio environments, which has also grown with the increase of available computing power.<p><div class="share_submission">\u000a<a class="slashpop" href="http://twitter.com/home?status=3D+Audio+Standard+Released%3A+http%3A%2F%2Fbit.ly%2F1Lo7Due"><img src="http://a.fsdn.com/sd/twitter_icon_large.png" /></a>\u000a<a class="slashpop" href="http://www.facebook.com/sharer.php?u=http%3A%2F%2Ftech.slashdot.org%2Fstory%2F15%2F03%2F17%2F1417216%2F3d-audio-standard-released%3Futm_source%3Dslashdot%26utm_medium%3Dfacebook"><img src="http://a.fsdn.com/sd/facebook_icon_large.png" /></a>\u000a\u000a<a class="nobg" href="http://plus.google.com/share?url=http://tech.slashdot.org/story/15/03/17/1417216/3d-audio-standard-released?utm_source=slashdot&amp;utm_medium=googleplus"><img alt="Share on Google+" src="http://www.gstatic.com/images/icons/gplus-16.png" /></a>                                                                                                                                                                              \u000a\u000a\u000a\u000a</div></p><p><a href="http://tech.slashdot.org/story/15/03/17/1417216/3d-audio-standard-released?utm_source=rss1.0moreanon&amp;utm_medium=feed">Read more of this story</a> at Slashdot.</p><img alt="" height="1" src="http://feeds.feedburner.com/~r/Slashdot/slashdot/~4/wZXo_jwvDt8" width="1" />
p209
stRp210
sg11
g12
((I2015
I3
I17
I15
I32
I0
I1
I76
I0
t(dtRp211
sg14
(lp212
g1
(g2
g3
(dp213
g17
Vhttp://rss.slashdot.org/~r/Slashdot/slashdot/~3/wZXo_jwvDt8/3d-audio-standard-released
p214
sg19
g20
sg21
g22
stRp215
asg38
(lp216
g1
(g2
g3
(dp217
g41
Vmusic
p218
sg43
Nsg44
NstRp219
asS'slash_department'
p220
Vif-you-had-a-pair-of-ears-on-the-back-of-your-head
p221
sS'feedburner_origlink'
p222
Vhttp://tech.slashdot.org/story/15/03/17/1417216/3d-audio-standard-released?utm_source=rss1.0mainlinkanon&utm_medium=feed
p223
sg7
V2015-03-17T15:32:00+00:00
p224
sS'slash_section'
p225
Vtechnology
p226
sg57
g214
sg58
(lp227
g1
(g2
g3
(dtRp228
asS'author_detail'
p229
g1
(g2
g3
(dp230
g72
Vtimothy
p231
stRp232
sS'slash_hit_parade'
p233
V31,31,20,15,6,2,1
p234
sg151
Vhttp://tech.slashdot.org/story/15/03/17/1417216/3d-audio-standard-released?utm_source=rss1.0mainlinkanon&utm_medium=feed
p235
sS'slash_comments'
p236
V31
p237
sg103
V3D Audio Standard Released
p238
sg84
g231
sg155
VCIStud writes The Audio Engineering Society (AES) has released its new 3D Audio Standard (AES69-2015), covering topics such as binaural listening, which is growing due to increased usage of smartphones, tablets and other individual entertainment systems that offer audio using headphones. AES states that an understanding of the way that the listener experiences binaural sound, expressed as head-related transfer functions (HRTF) facilitates the way to 3D personal audio. The standard also looks into convolution-based reverberation processors in 3D virtual audio environments, which has also grown with the increase of available computing power.<p><div class="share_submission">\u000a<a class="slashpop" href="http://twitter.com/home?status=3D+Audio+Standard+Released\u005c%3A+http\u005c%3A\u005c%2F\u005c%2Fbit.ly\u005c%2F1Lo7Due"><img src="http://a.fsdn.com/sd/twitter_icon_large.png" /></a>\u000a<a class="slashpop" href="http://www.facebook.com/sharer.php?u=http\u005c%3A\u005c%2F\u005c%2Ftech.slashdot.org\u005c%2Fstory\u005c%2F15\u005c%2F03\u005c%2F17\u005c%2F1417216\u005c%2F3d-audio-standard-released\u005c%3Futm_source\u005c%3Dslashdot\u005c%26utm_medium\u005c%3Dfacebook"><img src="http://a.fsdn.com/sd/facebook_icon_large.png" /></a>\u000a\u000a<a class="nobg" href="http://plus.google.com/share?url=http://tech.slashdot.org/story/15/03/17/1417216/3d-audio-standard-released?utm_source=slashdot&amp;utm_medium=googleplus"><img alt="Share on Google+" src="http://www.gstatic.com/images/icons/gplus-16.png" /></a>                                                                                                                                                                              \u000a\u000a\u000a\u000a</div></p><p><a href="http://tech.slashdot.org/story/15/03/17/1417216/3d-audio-standard-released?utm_source=rss1.0moreanon&amp;utm_medium=feed">Read more of this story</a> at Slashdot.</p><img alt="" height="1" src="http://feeds.feedburner.com/~r/Slashdot/slashdot/~4/wZXo_jwvDt8" width="1" />
p239
sS'title_detail'
p240
g1
(g2
g3
(dp241
g63
Vhttp://rss.slashdot.org/slashdot/Slashdot
p242
sg19
g98
sg66
Nsg67
g238
stRp243
sg161
(lp244
g99
aV*
astRp245
ag1
(g2
g3
(dp246
S'summary_detail'
p247
g1
(g2
g3
(dp248
g63
Vhttp://rss.slashdot.org/slashdot/Slashdot
p249
sg19
g93
sg66
Nsg67
VAn anonymous reader writes with this story at USA Today: The White House is removing a federal regulation that subjects its Office of Administration to the Freedom of Information Act, making official a policy under Presidents Bush and Obama to reject requests for records to that office. The White House said the cleanup of FOIA regulations is consistent with court rulings that hold that the office is not subject to the transparency law.<p><div class="share_submission">\u000a<a class="slashpop" href="http://twitter.com/home?status=White+House+Office+of+Administration+Not+Subject+to+FOIA%2C+Says+White+House%3A+http%3A%2F%2Fbit.ly%2F1GRbvgG"><img src="http://a.fsdn.com/sd/twitter_icon_large.png" /></a>\u000a<a class="slashpop" href="http://www.facebook.com/sharer.php?u=http%3A%2F%2Fyro.slashdot.org%2Fstory%2F15%2F03%2F17%2F1413214%2Fwhite-house-office-of-administration-not-subject-to-foia-says-white-house%3Futm_source%3Dslashdot%26utm_medium%3Dfacebook"><img src="http://a.fsdn.com/sd/facebook_icon_large.png" /></a>\u000a\u000a<a class="nobg" href="http://plus.google.com/share?url=http://yro.slashdot.org/story/15/03/17/1413214/white-house-office-of-administration-not-subject-to-foia-says-white-house?utm_source=slashdot&amp;utm_medium=googleplus"><img alt="Share on Google+" src="http://www.gstatic.com/images/icons/gplus-16.png" /></a>                                                                                                                                                                              \u000a\u000a\u000a\u000a</div></p><p><a href="http://yro.slashdot.org/story/15/03/17/1413214/white-house-office-of-administration-not-subject-to-foia-says-white-house?utm_source=rss1.0moreanon&amp;utm_medium=feed">Read more of this story</a> at Slashdot.</p><img alt="" height="1" src="http://feeds.feedburner.com/~r/Slashdot/slashdot/~4/d-dTGcBDpUA" width="1" />
p250
stRp251
sg11
g12
((I2015
I3
I17
I14
I50
I0
I1
I76
I0
t(dtRp252
sg14
(lp253
g1
(g2
g3
(dp254
g17
Vhttp://rss.slashdot.org/~r/Slashdot/slashdot/~3/d-dTGcBDpUA/white-house-office-of-administration-not-subject-to-foia-says-white-house
p255
sg19
g20
sg21
g22
stRp256
asg38
(lp257
g1
(g2
g3
(dp258
g41
Vusa
p259
sg43
Nsg44
NstRp260
asS'slash_department'
p261
Vwell-they-certainly-are-transparent
p262
sS'feedburner_origlink'
p263
Vhttp://yro.slashdot.org/story/15/03/17/1413214/white-house-office-of-administration-not-subject-to-foia-says-white-house?utm_source=rss1.0mainlinkanon&utm_medium=feed
p264
sg7
V2015-03-17T14:50:00+00:00
p265
sS'slash_section'
p266
Vyro
p267
sg57
g255
sg58
(lp268
g1
(g2
g3
(dtRp269
asS'author_detail'
p270
g1
(g2
g3
(dp271
g72
Vtimothy
p272
stRp273
sS'slash_hit_parade'
p274
V150,148,104,78,26,13,8
p275
sg151
Vhttp://yro.slashdot.org/story/15/03/17/1413214/white-house-office-of-administration-not-subject-to-foia-says-white-house?utm_source=rss1.0mainlinkanon&utm_medium=feed
p276
sS'slash_comments'
p277
V150
p278
sg103
VWhite House Office of Administration Not Subject to FOIA, Says White House
p279
sg84
g272
sg155
VAn anonymous reader writes with this story at USA Today: The White House is removing a federal regulation that subjects its Office of Administration to the Freedom of Information Act, making official a policy under Presidents Bush and Obama to reject requests for records to that office. The White House said the cleanup of FOIA regulations is consistent with court rulings that hold that the office is not subject to the transparency law.<p><div class="share_submission">\u000a<a class="slashpop" href="http://twitter.com/home?status=White+House+Office+of+Administration+Not+Subject+to+FOIA\u005c%2C+Says+White+House\u005c%3A+http\u005c%3A\u005c%2F\u005c%2Fbit.ly\u005c%2F1GRbvgG"><img src="http://a.fsdn.com/sd/twitter_icon_large.png" /></a>\u000a<a class="slashpop" href="http://www.facebook.com/sharer.php?u=http\u005c%3A\u005c%2F\u005c%2Fyro.slashdot.org\u005c%2Fstory\u005c%2F15\u005c%2F03\u005c%2F17\u005c%2F1413214\u005c%2Fwhite-house-office-of-administration-not-subject-to-foia-says-white-house\u005c%3Futm_source\u005c%3Dslashdot\u005c%26utm_medium\u005c%3Dfacebook"><img src="http://a.fsdn.com/sd/facebook_icon_large.png" /></a>\u000a\u000a<a class="nobg" href="http://plus.google.com/share?url=http://yro.slashdot.org/story/15/03/17/1413214/white-house-office-of-administration-not-subject-to-foia-says-white-house?utm_source=slashdot&amp;utm_medium=googleplus"><img alt="Share on Google+" src="http://www.gstatic.com/images/icons/gplus-16.png" /></a>                                                                                                                                                                              \u000a\u000a\u000a\u000a</div></p><p><a href="http://yro.slashdot.org/story/15/03/17/1413214/white-house-office-of-administration-not-subject-to-foia-says-white-house?utm_source=rss1.0moreanon&amp;utm_medium=feed">Read more of this story</a> at Slashdot.</p><img alt="" height="1" src="http://feeds.feedburner.com/~r/Slashdot/slashdot/~4/d-dTGcBDpUA" width="1" />
p280
sS'title_detail'
p281
g1
(g2
g3
(dp282
g63
Vhttp://rss.slashdot.org/slashdot/Slashdot
p283
sg19
g98
sg66
Nsg67
g279
stRp284
sg161
(lp285
g99
aV*
astRp286
ag1
(g2
g3
(dp287
S'summary_detail'
p288
g1
(g2
g3
(dp289
g63
Vhttp://rss.slashdot.org/slashdot/Slashdot
p290
sg19
g93
sg66
Nsg67
VAn anonymous reader writes Ex-NSA and NASA researcher Patrick Wardle claims to have developed a reliable technique of Shared Library replacement which renders Apple's OSX operating system just as vulnerable to exploitation as Windows has been (via its 'DLL' shared libraries) for years. Speaking at CanSecWest, Wardle explained that Apple's refusal to encrypt software downloads via its App Store allows an attacker on the same network to inject a malicious 'dylib' (shared library) without altering the hash of the legitimate-but-vulnerable software, thereby leaving the Developer ID signature intact. Wardle ran a crafted Python script on a typical Mac and discovered 150 dylib-dependent applications, including Apple's own Xcode developer environment &mdash; revealed last week by Edward Snowden to be a priority target for the NSA due to its ability to propagate compromised software.<p><div class="share_submission">\u000a<a class="slashpop" href="http://twitter.com/home?status=Ex-NSA+Researcher+Claims+That+DLL-Style+Attacks+Work+Just+Fine+On+OS+X%3A+http%3A%2F%2Fbit.ly%2F1bdsmAF"><img src="http://a.fsdn.com/sd/twitter_icon_large.png" /></a>\u000a<a class="slashpop" href="http://www.facebook.com/sharer.php?u=http%3A%2F%2Fapple.slashdot.org%2Fstory%2F15%2F03%2F17%2F1348229%2Fex-nsa-researcher-claims-that-dll-style-attacks-work-just-fine-on-os-x%3Futm_source%3Dslashdot%26utm_medium%3Dfacebook"><img src="http://a.fsdn.com/sd/facebook_icon_large.png" /></a>\u000a\u000a<a class="nobg" href="http://plus.google.com/share?url=http://apple.slashdot.org/story/15/03/17/1348229/ex-nsa-researcher-claims-that-dll-style-attacks-work-just-fine-on-os-x?utm_source=slashdot&amp;utm_medium=googleplus"><img alt="Share on Google+" src="http://www.gstatic.com/images/icons/gplus-16.png" /></a>                                                                                                                                                                              \u000a\u000a\u000a\u000a</div></p><p><a href="http://apple.slashdot.org/story/15/03/17/1348229/ex-nsa-researcher-claims-that-dll-style-attacks-work-just-fine-on-os-x?utm_source=rss1.0moreanon&amp;utm_medium=feed">Read more of this story</a> at Slashdot.</p><img alt="" height="1" src="http://feeds.feedburner.com/~r/Slashdot/slashdot/~4/dNRLyDH3SXM" width="1" />
p291
stRp292
sg11
g12
((I2015
I3
I17
I14
I7
I0
I1
I76
I0
t(dtRp293
sg14
(lp294
g1
(g2
g3
(dp295
g17
Vhttp://rss.slashdot.org/~r/Slashdot/slashdot/~3/dNRLyDH3SXM/ex-nsa-researcher-claims-that-dll-style-attacks-work-just-fine-on-os-x
p296
sg19
g20
sg21
g22
stRp297
asg38
(lp298
g1
(g2
g3
(dp299
g41
Vsecurity
p300
sg43
Nsg44
NstRp301
asS'slash_department'
p302
Vit's-a-feature
p303
sS'feedburner_origlink'
p304
Vhttp://apple.slashdot.org/story/15/03/17/1348229/ex-nsa-researcher-claims-that-dll-style-attacks-work-just-fine-on-os-x?utm_source=rss1.0mainlinkanon&utm_medium=feed
p305
sg7
V2015-03-17T14:07:00+00:00
p306
sS'slash_section'
p307
Vapple
p308
sg57
g296
sg58
(lp309
g1
(g2
g3
(dtRp310
asS'author_detail'
p311
g1
(g2
g3
(dp312
g72
Vtimothy
p313
stRp314
sS'slash_hit_parade'
p315
V64,64,40,37,4,1,0
p316
sg151
Vhttp://apple.slashdot.org/story/15/03/17/1348229/ex-nsa-researcher-claims-that-dll-style-attacks-work-just-fine-on-os-x?utm_source=rss1.0mainlinkanon&utm_medium=feed
p317
sS'slash_comments'
p318
V64
p319
sg103
VEx-NSA Researcher Claims That DLL-Style Attacks Work Just Fine On OS X
p320
sg84
g313
sg155
VAn anonymous reader writes Ex-NSA and NASA researcher Patrick Wardle claims to have developed a reliable technique of Shared Library replacement which renders Apple's OSX operating system just as vulnerable to exploitation as Windows has been (via its 'DLL' shared libraries) for years. Speaking at CanSecWest, Wardle explained that Apple's refusal to encrypt software downloads via its App Store allows an attacker on the same network to inject a malicious 'dylib' (shared library) without altering the hash of the legitimate-but-vulnerable software, thereby leaving the Developer ID signature intact. Wardle ran a crafted Python script on a typical Mac and discovered 150 dylib-dependent applications, including Apple's own Xcode developer environment &mdash; revealed last week by Edward Snowden to be a priority target for the NSA due to its ability to propagate compromised software.<p><div class="share_submission">\u000a<a class="slashpop" href="http://twitter.com/home?status=Ex-NSA+Researcher+Claims+That+DLL-Style+Attacks+Work+Just+Fine+On+OS+X\u005c%3A+http\u005c%3A\u005c%2F\u005c%2Fbit.ly\u005c%2F1bdsmAF"><img src="http://a.fsdn.com/sd/twitter_icon_large.png" /></a>\u000a<a class="slashpop" href="http://www.facebook.com/sharer.php?u=http\u005c%3A\u005c%2F\u005c%2Fapple.slashdot.org\u005c%2Fstory\u005c%2F15\u005c%2F03\u005c%2F17\u005c%2F1348229\u005c%2Fex-nsa-researcher-claims-that-dll-style-attacks-work-just-fine-on-os-x\u005c%3Futm_source\u005c%3Dslashdot\u005c%26utm_medium\u005c%3Dfacebook"><img src="http://a.fsdn.com/sd/facebook_icon_large.png" /></a>\u000a\u000a<a class="nobg" href="http://plus.google.com/share?url=http://apple.slashdot.org/story/15/03/17/1348229/ex-nsa-researcher-claims-that-dll-style-attacks-work-just-fine-on-os-x?utm_source=slashdot&amp;utm_medium=googleplus"><img alt="Share on Google+" src="http://www.gstatic.com/images/icons/gplus-16.png" /></a>                                                                                                                                                                              \u000a\u000a\u000a\u000a</div></p><p><a href="http://apple.slashdot.org/story/15/03/17/1348229/ex-nsa-researcher-claims-that-dll-style-attacks-work-just-fine-on-os-x?utm_source=rss1.0moreanon&amp;utm_medium=feed">Read more of this story</a> at Slashdot.</p><img alt="" height="1" src="http://feeds.feedburner.com/~r/Slashdot/slashdot/~4/dNRLyDH3SXM" width="1" />
p321
sS'title_detail'
p322
g1
(g2
g3
(dp323
g63
Vhttp://rss.slashdot.org/slashdot/Slashdot
p324
sg19
g98
sg66
Nsg67
g320
stRp325
sg161
(lp326
g99
aV*
astRp327
ag1
(g2
g3
(dp328
S'summary_detail'
p329
g1
(g2
g3
(dp330
g63
Vhttp://rss.slashdot.org/slashdot/Slashdot
p331
sg19
g93
sg66
Nsg67
VPvtVoid writes with this report from the New York Times, excerpting: An industry consultant, Cherian Abraham, put the fraud rate [for Apple Pay] at 6 percent, compared with a traditional credit card fraud rate that is relatively minuscule, 10 cents for every $100 spent. [i.e. one tenth of one percent]. The vulnerability in Apple Pay is in the way that it &mdash; and card issuers &mdash; "onboard" new credit cards into the system. Because Apple wanted its system to have the simplicity for which it has become famous and wanted to make the sign-up process "frictionless," the company required little beyond basic credit card information about a user. Nor did it provide much information to the banks, like full phone numbers and addresses, that might help them detect fraud early. The banks, desperate to become their customers' default card on Apple Pay &mdash; most add only one to their iPhones &mdash; did little to build their own defenses or to push Apple to provide more detailed information about its customers. Some bank executives acknowledged that they were were so scared of Apple that they didn't speak up.<p><div class="share_submission">\u000a<a class="slashpop" href="http://twitter.com/home?status=Fraud+Rampant+In+Apple+Pay%3A+http%3A%2F%2Fbit.ly%2F1EsPrJt"><img src="http://a.fsdn.com/sd/twitter_icon_large.png" /></a>\u000a<a class="slashpop" href="http://www.facebook.com/sharer.php?u=http%3A%2F%2Fapple.slashdot.org%2Fstory%2F15%2F03%2F17%2F1323258%2Ffraud-rampant-in-apple-pay%3Futm_source%3Dslashdot%26utm_medium%3Dfacebook"><img src="http://a.fsdn.com/sd/facebook_icon_large.png" /></a>\u000a\u000a<a class="nobg" href="http://plus.google.com/share?url=http://apple.slashdot.org/story/15/03/17/1323258/fraud-rampant-in-apple-pay?utm_source=slashdot&amp;utm_medium=googleplus"><img alt="Share on Google+" src="http://www.gstatic.com/images/icons/gplus-16.png" /></a>                                                                                                                                                                              \u000a\u000a\u000a\u000a</div></p><p><a href="http://apple.slashdot.org/story/15/03/17/1323258/fraud-rampant-in-apple-pay?utm_source=rss1.0moreanon&amp;utm_medium=feed">Read more of this story</a> at Slashdot.</p><img alt="" height="1" src="http://feeds.feedburner.com/~r/Slashdot/slashdot/~4/h-cCuNMaeMQ" width="1" />
p332
stRp333
sg11
g12
((I2015
I3
I17
I13
I23
I0
I1
I76
I0
t(dtRp334
sg14
(lp335
g1
(g2
g3
(dp336
g17
Vhttp://rss.slashdot.org/~r/Slashdot/slashdot/~3/h-cCuNMaeMQ/fraud-rampant-in-apple-pay
p337
sg19
g20
sg21
g22
stRp338
asg38
(lp339
g1
(g2
g3
(dp340
g41
Vcrime
p341
sg43
Nsg44
NstRp342
asS'slash_department'
p343
Vplay-money
p344
sS'feedburner_origlink'
p345
Vhttp://apple.slashdot.org/story/15/03/17/1323258/fraud-rampant-in-apple-pay?utm_source=rss1.0mainlinkanon&utm_medium=feed
p346
sg7
V2015-03-17T13:23:00+00:00
p347
sS'slash_section'
p348
Vapple
p349
sg57
g337
sg58
(lp350
g1
(g2
g3
(dtRp351
asS'author_detail'
p352
g1
(g2
g3
(dp353
g72
Vtimothy
p354
stRp355
sS'slash_hit_parade'
p356
V165,164,121,109,22,13,8
p357
sg151
Vhttp://apple.slashdot.org/story/15/03/17/1323258/fraud-rampant-in-apple-pay?utm_source=rss1.0mainlinkanon&utm_medium=feed
p358
sS'slash_comments'
p359
V165
p360
sg103
VFraud Rampant In Apple Pay
p361
sg84
g354
sg155
VPvtVoid writes with this report from the New York Times, excerpting: An industry consultant, Cherian Abraham, put the fraud rate [for Apple Pay] at 6 percent, compared with a traditional credit card fraud rate that is relatively minuscule, 10 cents for every $100 spent. [i.e. one tenth of one percent]. The vulnerability in Apple Pay is in the way that it &mdash; and card issuers &mdash; "onboard" new credit cards into the system. Because Apple wanted its system to have the simplicity for which it has become famous and wanted to make the sign-up process "frictionless," the company required little beyond basic credit card information about a user. Nor did it provide much information to the banks, like full phone numbers and addresses, that might help them detect fraud early. The banks, desperate to become their customers' default card on Apple Pay &mdash; most add only one to their iPhones &mdash; did little to build their own defenses or to push Apple to provide more detailed information about its customers. Some bank executives acknowledged that they were were so scared of Apple that they didn't speak up.<p><div class="share_submission">\u000a<a class="slashpop" href="http://twitter.com/home?status=Fraud+Rampant+In+Apple+Pay\u005c%3A+http\u005c%3A\u005c%2F\u005c%2Fbit.ly\u005c%2F1EsPrJt"><img src="http://a.fsdn.com/sd/twitter_icon_large.png" /></a>\u000a<a class="slashpop" href="http://www.facebook.com/sharer.php?u=http\u005c%3A\u005c%2F\u005c%2Fapple.slashdot.org\u005c%2Fstory\u005c%2F15\u005c%2F03\u005c%2F17\u005c%2F1323258\u005c%2Ffraud-rampant-in-apple-pay\u005c%3Futm_source\u005c%3Dslashdot\u005c%26utm_medium\u005c%3Dfacebook"><img src="http://a.fsdn.com/sd/facebook_icon_large.png" /></a>\u000a\u000a<a class="nobg" href="http://plus.google.com/share?url=http://apple.slashdot.org/story/15/03/17/1323258/fraud-rampant-in-apple-pay?utm_source=slashdot&amp;utm_medium=googleplus"><img alt="Share on Google+" src="http://www.gstatic.com/images/icons/gplus-16.png" /></a>                                                                                                                                                                              \u000a\u000a\u000a\u000a</div></p><p><a href="http://apple.slashdot.org/story/15/03/17/1323258/fraud-rampant-in-apple-pay?utm_source=rss1.0moreanon&amp;utm_medium=feed">Read more of this story</a> at Slashdot.</p><img alt="" height="1" src="http://feeds.feedburner.com/~r/Slashdot/slashdot/~4/h-cCuNMaeMQ" width="1" />
p362
sS'title_detail'
p363
g1
(g2
g3
(dp364
g63
Vhttp://rss.slashdot.org/slashdot/Slashdot
p365
sg19
g98
sg66
Nsg67
g361
stRp366
sg161
(lp367
g99
aV*
astRp368
ag1
(g2
g3
(dp369
S'summary_detail'
p370
g1
(g2
g3
(dp371
g63
Vhttp://rss.slashdot.org/slashdot/Slashdot
p372
sg19
g93
sg66
Nsg67
Vsarahnaomi writes In countries like Zambia, Tanzania, or Kenya, where very few have access to the Internet, Facebook is bringing its own version of the net: Internet.org, an app that gives mobile users free access to certain sites such as Google, Wikipedia and, of course, Facebook. While the initiative has clearly positive goals, it's also been criticized as an "imperialistic" push for Facebook colonies, where novice Internet.org users will grow up thinking their restricted version of the web is the real internet. To fight against that possibility, a 20-year-old developer from Paraguay is working on an app that tunnels the "regular" internet through Facebook Messenger, one of the services free to use on Internet.org's app. This allows Internet.org users to establish a link to the outside, unrestricted internet, circumventing restrictions.<p><div class="share_submission">\u000a<a class="slashpop" href="http://twitter.com/home?status=This+App+Lets+You+Piggyback+Facebook's+Free+Internet+To+Access+Any+Site%3A+http%3A%2F%2Fbit.ly%2F1CrgjvT"><img src="http://a.fsdn.com/sd/twitter_icon_large.png" /></a>\u000a<a class="slashpop" href="http://www.facebook.com/sharer.php?u=http%3A%2F%2Ftech.slashdot.org%2Fstory%2F15%2F03%2F17%2F1246245%2Fthis-app-lets-you-piggyback-facebooks-free-internet-to-access-any-site%3Futm_source%3Dslashdot%26utm_medium%3Dfacebook"><img src="http://a.fsdn.com/sd/facebook_icon_large.png" /></a>\u000a\u000a<a class="nobg" href="http://plus.google.com/share?url=http://tech.slashdot.org/story/15/03/17/1246245/this-app-lets-you-piggyback-facebooks-free-internet-to-access-any-site?utm_source=slashdot&amp;utm_medium=googleplus"><img alt="Share on Google+" src="http://www.gstatic.com/images/icons/gplus-16.png" /></a>                                                                                                                                                                              \u000a\u000a\u000a\u000a</div></p><p><a href="http://tech.slashdot.org/story/15/03/17/1246245/this-app-lets-you-piggyback-facebooks-free-internet-to-access-any-site?utm_source=rss1.0moreanon&amp;utm_medium=feed">Read more of this story</a> at Slashdot.</p><img alt="" height="1" src="http://feeds.feedburner.com/~r/Slashdot/slashdot/~4/37h6ZrU1e2E" width="1" />
p373
stRp374
sg11
g12
((I2015
I3
I17
I12
I47
I0
I1
I76
I0
t(dtRp375
sg14
(lp376
g1
(g2
g3
(dp377
g17
Vhttp://rss.slashdot.org/~r/Slashdot/slashdot/~3/37h6ZrU1e2E/this-app-lets-you-piggyback-facebooks-free-internet-to-access-any-site
p378
sg19
g20
sg21
g22
stRp379
asg38
(lp380
g1
(g2
g3
(dp381
g41
Vfacebook
p382
sg43
Nsg44
NstRp383
asS'slash_department'
p384
Vbits-is-bits
p385
sS'feedburner_origlink'
p386
Vhttp://tech.slashdot.org/story/15/03/17/1246245/this-app-lets-you-piggyback-facebooks-free-internet-to-access-any-site?utm_source=rss1.0mainlinkanon&utm_medium=feed
p387
sg7
V2015-03-17T12:47:00+00:00
p388
sS'slash_section'
p389
Vtechnology
p390
sg57
g378
sg58
(lp391
g1
(g2
g3
(dtRp392
asS'author_detail'
p393
g1
(g2
g3
(dp394
g72
Vtimothy
p395
stRp396
sS'slash_hit_parade'
p397
V45,43,29,25,10,4,1
p398
sg151
Vhttp://tech.slashdot.org/story/15/03/17/1246245/this-app-lets-you-piggyback-facebooks-free-internet-to-access-any-site?utm_source=rss1.0mainlinkanon&utm_medium=feed
p399
sS'slash_comments'
p400
V45
p401
sg103
VThis App Lets You Piggyback Facebook's Free Internet To Access Any Site
p402
sg84
g395
sg155
Vsarahnaomi writes In countries like Zambia, Tanzania, or Kenya, where very few have access to the Internet, Facebook is bringing its own version of the net: Internet.org, an app that gives mobile users free access to certain sites such as Google, Wikipedia and, of course, Facebook. While the initiative has clearly positive goals, it's also been criticized as an "imperialistic" push for Facebook colonies, where novice Internet.org users will grow up thinking their restricted version of the web is the real internet. To fight against that possibility, a 20-year-old developer from Paraguay is working on an app that tunnels the "regular" internet through Facebook Messenger, one of the services free to use on Internet.org's app. This allows Internet.org users to establish a link to the outside, unrestricted internet, circumventing restrictions.<p><div class="share_submission">\u000a<a class="slashpop" href="http://twitter.com/home?status=This+App+Lets+You+Piggyback+Facebook's+Free+Internet+To+Access+Any+Site\u005c%3A+http\u005c%3A\u005c%2F\u005c%2Fbit.ly\u005c%2F1CrgjvT"><img src="http://a.fsdn.com/sd/twitter_icon_large.png" /></a>\u000a<a class="slashpop" href="http://www.facebook.com/sharer.php?u=http\u005c%3A\u005c%2F\u005c%2Ftech.slashdot.org\u005c%2Fstory\u005c%2F15\u005c%2F03\u005c%2F17\u005c%2F1246245\u005c%2Fthis-app-lets-you-piggyback-facebooks-free-internet-to-access-any-site\u005c%3Futm_source\u005c%3Dslashdot\u005c%26utm_medium\u005c%3Dfacebook"><img src="http://a.fsdn.com/sd/facebook_icon_large.png" /></a>\u000a\u000a<a class="nobg" href="http://plus.google.com/share?url=http://tech.slashdot.org/story/15/03/17/1246245/this-app-lets-you-piggyback-facebooks-free-internet-to-access-any-site?utm_source=slashdot&amp;utm_medium=googleplus"><img alt="Share on Google+" src="http://www.gstatic.com/images/icons/gplus-16.png" /></a>                                                                                                                                                                              \u000a\u000a\u000a\u000a</div></p><p><a href="http://tech.slashdot.org/story/15/03/17/1246245/this-app-lets-you-piggyback-facebooks-free-internet-to-access-any-site?utm_source=rss1.0moreanon&amp;utm_medium=feed">Read more of this story</a> at Slashdot.</p><img alt="" height="1" src="http://feeds.feedburner.com/~r/Slashdot/slashdot/~4/37h6ZrU1e2E" width="1" />
p403
sS'title_detail'
p404
g1
(g2
g3
(dp405
g63
Vhttp://rss.slashdot.org/slashdot/Slashdot
p406
sg19
g98
sg66
Nsg67
g402
stRp407
sg161
(lp408
g99
aV*
astRp409
ag1
(g2
g3
(dp410
S'summary_detail'
p411
g1
(g2
g3
(dp412
g63
Vhttp://rss.slashdot.org/slashdot/Slashdot
p413
sg19
g93
sg66
Nsg67
VHughPickens.com writes: In the world of Big Data, everything means something. Now Joe Pinsker reports that Cornerstone OnDemand, a company that sells software that helps employers recruit and retain workers, has found after analyzing data on about 50,000 people who took its 45-minute online job assessment, that people who took the test on a non-default browser, such as Firefox or Chrome, ended up staying at their jobs about 15 percent longer than those who stuck with Safari or Internet Explorer. They also tended to perform better on the job as well. Chief Analytics Officer Michael Housman offered an explanation for the results in an interview with Freakonomics Radio: "I think that the fact that you took the time to install Firefox on your computer shows us something about you. It shows that you're someone who is an informed consumer," says Housman. "You've made an active choice to do something that wasn't default." But why would a company care about something as seemingly trivial as the browser a candidate chooses to use? "Call centers are estimated to suffer from a turnover rate of about 45 percent annually (PDF), and it can cost thousands of dollars to hire new employees," says Pinsker. "Because of that, companies are eager to find any proxy for talent and dedication that they can."<p><div class="share_submission">\u000a<a class="slashpop" href="http://twitter.com/home?status=Analysis%3A+People+Who+Use+Firefox+Or+Chrome+Make+Better+Employees%3A+http%3A%2F%2Fbit.ly%2F1MGOgtF"><img src="http://a.fsdn.com/sd/twitter_icon_large.png" /></a>\u000a<a class="slashpop" href="http://www.facebook.com/sharer.php?u=http%3A%2F%2Fnews.slashdot.org%2Fstory%2F15%2F03%2F17%2F0215235%2Fanalysis-people-who-use-firefox-or-chrome-make-better-employees%3Futm_source%3Dslashdot%26utm_medium%3Dfacebook"><img src="http://a.fsdn.com/sd/facebook_icon_large.png" /></a>\u000a\u000a<a class="nobg" href="http://plus.google.com/share?url=http://news.slashdot.org/story/15/03/17/0215235/analysis-people-who-use-firefox-or-chrome-make-better-employees?utm_source=slashdot&amp;utm_medium=googleplus"><img alt="Share on Google+" src="http://www.gstatic.com/images/icons/gplus-16.png" /></a>                                                                                                                                                                              \u000a\u000a\u000a\u000a</div></p><p><a href="http://news.slashdot.org/story/15/03/17/0215235/analysis-people-who-use-firefox-or-chrome-make-better-employees?utm_source=rss1.0moreanon&amp;utm_medium=feed">Read more of this story</a> at Slashdot.</p><img alt="" height="1" src="http://feeds.feedburner.com/~r/Slashdot/slashdot/~4/bXbpuBdb2Dk" width="1" />
p414
stRp415
sg11
g12
((I2015
I3
I17
I12
I10
I0
I1
I76
I0
t(dtRp416
sg14
(lp417
g1
(g2
g3
(dp418
g17
Vhttp://rss.slashdot.org/~r/Slashdot/slashdot/~3/bXbpuBdb2Dk/analysis-people-who-use-firefox-or-chrome-make-better-employees
p419
sg19
g20
sg21
g22
stRp420
asg38
(lp421
g1
(g2
g3
(dp422
g41
Vfirefox
p423
sg43
Nsg44
NstRp424
asS'slash_department'
p425
Valso-handsomer-and-better-at-darts
p426
sS'feedburner_origlink'
p427
Vhttp://news.slashdot.org/story/15/03/17/0215235/analysis-people-who-use-firefox-or-chrome-make-better-employees?utm_source=rss1.0mainlinkanon&utm_medium=feed
p428
sg7
V2015-03-17T12:10:00+00:00
p429
sS'slash_section'
p430
Vnews
p431
sg57
g419
sg58
(lp432
g1
(g2
g3
(dtRp433
asS'author_detail'
p434
g1
(g2
g3
(dp435
g72
VSoulskill
p436
stRp437
sS'slash_hit_parade'
p438
V87,84,60,49,20,9,5
p439
sg151
Vhttp://news.slashdot.org/story/15/03/17/0215235/analysis-people-who-use-firefox-or-chrome-make-better-employees?utm_source=rss1.0mainlinkanon&utm_medium=feed
p440
sS'slash_comments'
p441
V87
p442
sg103
VAnalysis: People Who Use Firefox Or Chrome Make Better Employees
p443
sg84
g436
sg155
VHughPickens.com writes: In the world of Big Data, everything means something. Now Joe Pinsker reports that Cornerstone OnDemand, a company that sells software that helps employers recruit and retain workers, has found after analyzing data on about 50,000 people who took its 45-minute online job assessment, that people who took the test on a non-default browser, such as Firefox or Chrome, ended up staying at their jobs about 15 percent longer than those who stuck with Safari or Internet Explorer. They also tended to perform better on the job as well. Chief Analytics Officer Michael Housman offered an explanation for the results in an interview with Freakonomics Radio: "I think that the fact that you took the time to install Firefox on your computer shows us something about you. It shows that you're someone who is an informed consumer," says Housman. "You've made an active choice to do something that wasn't default." But why would a company care about something as seemingly trivial as the browser a candidate chooses to use? "Call centers are estimated to suffer from a turnover rate of about 45 percent annually (PDF), and it can cost thousands of dollars to hire new employees," says Pinsker. "Because of that, companies are eager to find any proxy for talent and dedication that they can."<p><div class="share_submission">\u000a<a class="slashpop" href="http://twitter.com/home?status=Analysis\u005c%3A+People+Who+Use+Firefox+Or+Chrome+Make+Better+Employees\u005c%3A+http\u005c%3A\u005c%2F\u005c%2Fbit.ly\u005c%2F1MGOgtF"><img src="http://a.fsdn.com/sd/twitter_icon_large.png" /></a>\u000a<a class="slashpop" href="http://www.facebook.com/sharer.php?u=http\u005c%3A\u005c%2F\u005c%2Fnews.slashdot.org\u005c%2Fstory\u005c%2F15\u005c%2F03\u005c%2F17\u005c%2F0215235\u005c%2Fanalysis-people-who-use-firefox-or-chrome-make-better-employees\u005c%3Futm_source\u005c%3Dslashdot\u005c%26utm_medium\u005c%3Dfacebook"><img src="http://a.fsdn.com/sd/facebook_icon_large.png" /></a>\u000a\u000a<a class="nobg" href="http://plus.google.com/share?url=http://news.slashdot.org/story/15/03/17/0215235/analysis-people-who-use-firefox-or-chrome-make-better-employees?utm_source=slashdot&amp;utm_medium=googleplus"><img alt="Share on Google+" src="http://www.gstatic.com/images/icons/gplus-16.png" /></a>                                                                                                                                                                              \u000a\u000a\u000a\u000a</div></p><p><a href="http://news.slashdot.org/story/15/03/17/0215235/analysis-people-who-use-firefox-or-chrome-make-better-employees?utm_source=rss1.0moreanon&amp;utm_medium=feed">Read more of this story</a> at Slashdot.</p><img alt="" height="1" src="http://feeds.feedburner.com/~r/Slashdot/slashdot/~4/bXbpuBdb2Dk" width="1" />
p444
sS'title_detail'
p445
g1
(g2
g3
(dp446
g63
Vhttp://rss.slashdot.org/slashdot/Slashdot
p447
sg19
g98
sg66
Nsg67
g443
stRp448
sg161
(lp449
g99
aV*
astRp450
ag1
(g2
g3
(dp451
S'summary_detail'
p452
g1
(g2
g3
(dp453
g63
Vhttp://rss.slashdot.org/slashdot/Slashdot
p454
sg19
g93
sg66
Nsg67
VAn anonymous reader writes: After five years of service, my keyboard is dying, and I'm starting to look for a new one. Since it's for my primary machine, and I spend a lot of hours there for both work and leisure, I'd like to invest in a high-quality replacement. What do you recommend? I've been using a Logitech G15, and it worked well enough &mdash; but not well enough for me to buy another. (I've also heard Logitech's build quality has been on the decline in recent years &mdash; has that been your experience, those of you who own their recent hardware?) My use cases include coding and gaming, so durability is a big plus. \u000aI'd prefer something a bit less bulky than the G15, which has a raised area at the top for media controls and a tiny screen. I don't mind a thicker bottom bezel so much. I'm not a huge fan of ergonomic/split keyboards, but if you know a really excellent one, I wouldn't rule it out. Same with mechanical keyboards &mdash; love the action, but the noise is an issue. I don't need any particular bells and whistles, but don't mind them. As for a budget... as I said, it's for a heavy-use machine, so I don't mind investing in great hardware. (That said, if I'm spending $150+, it better automatically make sure all my semicolons are in the right place.) So, what keyboard has served you well?<p><div class="share_submission">\u000a<a class="slashpop" href="http://twitter.com/home?status=Ask+Slashdot%3A+Good+Keyboard%3F%3A+http%3A%2F%2Fbit.ly%2F1EY1cdr"><img src="http://a.fsdn.com/sd/twitter_icon_large.png" /></a>\u000a<a class="slashpop" href="http://www.facebook.com/sharer.php?u=http%3A%2F%2Fask.slashdot.org%2Fstory%2F15%2F03%2F17%2F0040210%2Fask-slashdot-good-keyboard%3Futm_source%3Dslashdot%26utm_medium%3Dfacebook"><img src="http://a.fsdn.com/sd/facebook_icon_large.png" /></a>\u000a\u000a<a class="nobg" href="http://plus.google.com/share?url=http://ask.slashdot.org/story/15/03/17/0040210/ask-slashdot-good-keyboard?utm_source=slashdot&amp;utm_medium=googleplus"><img alt="Share on Google+" src="http://www.gstatic.com/images/icons/gplus-16.png" /></a>                                                                                                                                                                              \u000a\u000a\u000a\u000a</div></p><p><a href="http://ask.slashdot.org/story/15/03/17/0040210/ask-slashdot-good-keyboard?utm_source=rss1.0moreanon&amp;utm_medium=feed">Read more of this story</a> at Slashdot.</p><img alt="" height="1" src="http://feeds.feedburner.com/~r/Slashdot/slashdot/~4/IMezGrcs-zA" width="1" />
p455
stRp456
sg11
g12
((I2015
I3
I17
I9
I15
I0
I1
I76
I0
t(dtRp457
sg14
(lp458
g1
(g2
g3
(dp459
g17
Vhttp://rss.slashdot.org/~r/Slashdot/slashdot/~3/IMezGrcs-zA/ask-slashdot-good-keyboard
p460
sg19
g20
sg21
g22
stRp461
asg38
(lp462
g1
(g2
g3
(dp463
g41
Vinputdev
p464
sg43
Nsg44
NstRp465
asS'slash_department'
p466
Vmust-fit-through-doors
p467
sS'feedburner_origlink'
p468
Vhttp://ask.slashdot.org/story/15/03/17/0040210/ask-slashdot-good-keyboard?utm_source=rss1.0mainlinkanon&utm_medium=feed
p469
sg7
V2015-03-17T09:15:00+00:00
p470
sS'slash_section'
p471
Vaskslashdot
p472
sg57
g460
sg58
(lp473
g1
(g2
g3
(dtRp474
asS'author_detail'
p475
g1
(g2
g3
(dp476
g72
VSoulskill
p477
stRp478
sS'slash_hit_parade'
p479
V331,327,210,156,26,11,7
p480
sg151
Vhttp://ask.slashdot.org/story/15/03/17/0040210/ask-slashdot-good-keyboard?utm_source=rss1.0mainlinkanon&utm_medium=feed
p481
sS'slash_comments'
p482
V331
p483
sg103
VAsk Slashdot: Good Keyboard?
p484
sg84
g477
sg155
VAn anonymous reader writes: After five years of service, my keyboard is dying, and I'm starting to look for a new one. Since it's for my primary machine, and I spend a lot of hours there for both work and leisure, I'd like to invest in a high-quality replacement. What do you recommend? I've been using a Logitech G15, and it worked well enough &mdash; but not well enough for me to buy another. (I've also heard Logitech's build quality has been on the decline in recent years &mdash; has that been your experience, those of you who own their recent hardware?) My use cases include coding and gaming, so durability is a big plus. \u000aI'd prefer something a bit less bulky than the G15, which has a raised area at the top for media controls and a tiny screen. I don't mind a thicker bottom bezel so much. I'm not a huge fan of ergonomic/split keyboards, but if you know a really excellent one, I wouldn't rule it out. Same with mechanical keyboards &mdash; love the action, but the noise is an issue. I don't need any particular bells and whistles, but don't mind them. As for a budget... as I said, it's for a heavy-use machine, so I don't mind investing in great hardware. (That said, if I'm spending $150+, it better automatically make sure all my semicolons are in the right place.) So, what keyboard has served you well?<p><div class="share_submission">\u000a<a class="slashpop" href="http://twitter.com/home?status=Ask+Slashdot\u005c%3A+Good+Keyboard\u005c%3F\u005c%3A+http\u005c%3A\u005c%2F\u005c%2Fbit.ly\u005c%2F1EY1cdr"><img src="http://a.fsdn.com/sd/twitter_icon_large.png" /></a>\u000a<a class="slashpop" href="http://www.facebook.com/sharer.php?u=http\u005c%3A\u005c%2F\u005c%2Fask.slashdot.org\u005c%2Fstory\u005c%2F15\u005c%2F03\u005c%2F17\u005c%2F0040210\u005c%2Fask-slashdot-good-keyboard\u005c%3Futm_source\u005c%3Dslashdot\u005c%26utm_medium\u005c%3Dfacebook"><img src="http://a.fsdn.com/sd/facebook_icon_large.png" /></a>\u000a\u000a<a class="nobg" href="http://plus.google.com/share?url=http://ask.slashdot.org/story/15/03/17/0040210/ask-slashdot-good-keyboard?utm_source=slashdot&amp;utm_medium=googleplus"><img alt="Share on Google+" src="http://www.gstatic.com/images/icons/gplus-16.png" /></a>                                                                                                                                                                              \u000a\u000a\u000a\u000a</div></p><p><a href="http://ask.slashdot.org/story/15/03/17/0040210/ask-slashdot-good-keyboard?utm_source=rss1.0moreanon&amp;utm_medium=feed">Read more of this story</a> at Slashdot.</p><img alt="" height="1" src="http://feeds.feedburner.com/~r/Slashdot/slashdot/~4/IMezGrcs-zA" width="1" />
p485
sS'title_detail'
p486
g1
(g2
g3
(dp487
g63
Vhttp://rss.slashdot.org/slashdot/Slashdot
p488
sg19
g98
sg66
Nsg67
g484
stRp489
sg161
(lp490
g99
aV*
astRp491
ag1
(g2
g3
(dp492
S'summary_detail'
p493
g1
(g2
g3
(dp494
g63
Vhttp://rss.slashdot.org/slashdot/Slashdot
p495
sg19
g93
sg66
Nsg67
VLucas123 writes: About 8% of terrestrial surfaces in California have been developed, ranging from cities and buildings to park spaces. If photovoltaic panels, along with concentrating solar power, were more effectively deployed in and around those areas, it could meet between three and five times what California currently uses for electricity, according to a new study. The study from the Carnegie Institution for Science, found that using small- and utility-scale solar power in and around developed areas could generate up to 15,000 terawatt-hours of energy a year using photovoltaic technology, and 6,000 TWh of energy a year using concentrating solar power technology. "Integrating solar facilities into the urban and suburban environment causes the least amount of land-cover change and the lowest environmental impact," post-doctoral environmental earth scientist Rebecca Hernandez said.<p><div class="share_submission">\u000a<a class="slashpop" href="http://twitter.com/home?status=Deploying+Solar+In+California's+Urban+Areas+Could+Meet+Demand+Five+Times+Over%3A+http%3A%2F%2Fbit.ly%2F1bd5C3Q"><img src="http://a.fsdn.com/sd/twitter_icon_large.png" /></a>\u000a<a class="slashpop" href="http://www.facebook.com/sharer.php?u=http%3A%2F%2Fhardware.slashdot.org%2Fstory%2F15%2F03%2F17%2F0218221%2Fdeploying-solar-in-californias-urban-areas-could-meet-demand-five-times-over%3Futm_source%3Dslashdot%26utm_medium%3Dfacebook"><img src="http://a.fsdn.com/sd/facebook_icon_large.png" /></a>\u000a\u000a<a class="nobg" href="http://plus.google.com/share?url=http://hardware.slashdot.org/story/15/03/17/0218221/deploying-solar-in-californias-urban-areas-could-meet-demand-five-times-over?utm_source=slashdot&amp;utm_medium=googleplus"><img alt="Share on Google+" src="http://www.gstatic.com/images/icons/gplus-16.png" /></a>                                                                                                                                                                              \u000a\u000a\u000a\u000a</div></p><p><a href="http://hardware.slashdot.org/story/15/03/17/0218221/deploying-solar-in-californias-urban-areas-could-meet-demand-five-times-over?utm_source=rss1.0moreanon&amp;utm_medium=feed">Read more of this story</a> at Slashdot.</p><img alt="" height="1" src="http://feeds.feedburner.com/~r/Slashdot/slashdot/~4/4hPK-SyirQI" width="1" />
p496
stRp497
sg11
g12
((I2015
I3
I17
I7
I35
I0
I1
I76
I0
t(dtRp498
sg14
(lp499
g1
(g2
g3
(dp500
g17
Vhttp://rss.slashdot.org/~r/Slashdot/slashdot/~3/4hPK-SyirQI/deploying-solar-in-californias-urban-areas-could-meet-demand-five-times-over
p501
sg19
g20
sg21
g22
stRp502
asg38
(lp503
g1
(g2
g3
(dp504
g41
Vpower
p505
sg43
Nsg44
NstRp506
asS'slash_department'
p507
Vfull-conversion-mods
p508
sS'feedburner_origlink'
p509
Vhttp://hardware.slashdot.org/story/15/03/17/0218221/deploying-solar-in-californias-urban-areas-could-meet-demand-five-times-over?utm_source=rss1.0mainlinkanon&utm_medium=feed
p510
sg7
V2015-03-17T07:35:00+00:00
p511
sS'slash_section'
p512
Vhardware
p513
sg57
g501
sg58
(lp514
g1
(g2
g3
(dtRp515
asS'author_detail'
p516
g1
(g2
g3
(dp517
g72
VSoulskill
p518
stRp519
sS'slash_hit_parade'
p520
V227,216,167,142,43,17,6
p521
sg151
Vhttp://hardware.slashdot.org/story/15/03/17/0218221/deploying-solar-in-californias-urban-areas-could-meet-demand-five-times-over?utm_source=rss1.0mainlinkanon&utm_medium=feed
p522
sS'slash_comments'
p523
V227
p524
sg103
VDeploying Solar In California's Urban Areas Could Meet Demand Five Times Over
p525
sg84
g518
sg155
VLucas123 writes: About 8\u005c% of terrestrial surfaces in California have been developed, ranging from cities and buildings to park spaces. If photovoltaic panels, along with concentrating solar power, were more effectively deployed in and around those areas, it could meet between three and five times what California currently uses for electricity, according to a new study. The study from the Carnegie Institution for Science, found that using small- and utility-scale solar power in and around developed areas could generate up to 15,000 terawatt-hours of energy a year using photovoltaic technology, and 6,000 TWh of energy a year using concentrating solar power technology. "Integrating solar facilities into the urban and suburban environment causes the least amount of land-cover change and the lowest environmental impact," post-doctoral environmental earth scientist Rebecca Hernandez said.<p><div class="share_submission">\u000a<a class="slashpop" href="http://twitter.com/home?status=Deploying+Solar+In+California's+Urban+Areas+Could+Meet+Demand+Five+Times+Over\u005c%3A+http\u005c%3A\u005c%2F\u005c%2Fbit.ly\u005c%2F1bd5C3Q"><img src="http://a.fsdn.com/sd/twitter_icon_large.png" /></a>\u000a<a class="slashpop" href="http://www.facebook.com/sharer.php?u=http\u005c%3A\u005c%2F\u005c%2Fhardware.slashdot.org\u005c%2Fstory\u005c%2F15\u005c%2F03\u005c%2F17\u005c%2F0218221\u005c%2Fdeploying-solar-in-californias-urban-areas-could-meet-demand-five-times-over\u005c%3Futm_source\u005c%3Dslashdot\u005c%26utm_medium\u005c%3Dfacebook"><img src="http://a.fsdn.com/sd/facebook_icon_large.png" /></a>\u000a\u000a<a class="nobg" href="http://plus.google.com/share?url=http://hardware.slashdot.org/story/15/03/17/0218221/deploying-solar-in-californias-urban-areas-could-meet-demand-five-times-over?utm_source=slashdot&amp;utm_medium=googleplus"><img alt="Share on Google+" src="http://www.gstatic.com/images/icons/gplus-16.png" /></a>                                                                                                                                                                              \u000a\u000a\u000a\u000a</div></p><p><a href="http://hardware.slashdot.org/story/15/03/17/0218221/deploying-solar-in-californias-urban-areas-could-meet-demand-five-times-over?utm_source=rss1.0moreanon&amp;utm_medium=feed">Read more of this story</a> at Slashdot.</p><img alt="" height="1" src="http://feeds.feedburner.com/~r/Slashdot/slashdot/~4/4hPK-SyirQI" width="1" />
p526
sS'title_detail'
p527
g1
(g2
g3
(dp528
g63
Vhttp://rss.slashdot.org/slashdot/Slashdot
p529
sg19
g98
sg66
Nsg67
g525
stRp530
sg161
(lp531
g99
aV*
astRp532
ag1
(g2
g3
(dp533
S'summary_detail'
p534
g1
(g2
g3
(dp535
g63
Vhttp://rss.slashdot.org/slashdot/Slashdot
p536
sg19
g93
sg66
Nsg67
VErnieKey writes: Carbon3D, a startup based in Redwood City, CA. has just announced a new breakthrough 3D printing technology called Continuous Liquid Interface Production technology (CLIP). The process works by using oxygen as an inhibiting agent as a UV light rapidly cures a photosensitive resin (abstract). "Conventional 3D printers usually take several hours to print an object &mdash; because with most printing methods, they need to individually treat each new layer of material after it's put down so that the next layer can be put down on top of it. The new method is much faster because it works continually, instead of in layers, eliminating this step. As a result, it works in minutes, rather than hours &mdash; 25 to 100 times faster, its creators say, than conventional 3D printing." The company has just emerged from stealth mode and announced that they have raised a staggering $41 million to further develop the process and bring it to market.<p><div class="share_submission">\u000a<a class="slashpop" href="http://twitter.com/home?status=New+3D+Printing+Process+Claimed+To+Be+25X+Faster+Than+Current+Technology%3A+http%3A%2F%2Fbit.ly%2F1BOSo7d"><img src="http://a.fsdn.com/sd/twitter_icon_large.png" /></a>\u000a<a class="slashpop" href="http://www.facebook.com/sharer.php?u=http%3A%2F%2Fbuild.slashdot.org%2Fstory%2F15%2F03%2F17%2F0213210%2Fnew-3d-printing-process-claimed-to-be-25x-faster-than-current-technology%3Futm_source%3Dslashdot%26utm_medium%3Dfacebook"><img src="http://a.fsdn.com/sd/facebook_icon_large.png" /></a>\u000a\u000a<a class="nobg" href="http://plus.google.com/share?url=http://build.slashdot.org/story/15/03/17/0213210/new-3d-printing-process-claimed-to-be-25x-faster-than-current-technology?utm_source=slashdot&amp;utm_medium=googleplus"><img alt="Share on Google+" src="http://www.gstatic.com/images/icons/gplus-16.png" /></a>                                                                                                                                                                              \u000a\u000a\u000a\u000a</div></p><p><a href="http://build.slashdot.org/story/15/03/17/0213210/new-3d-printing-process-claimed-to-be-25x-faster-than-current-technology?utm_source=rss1.0moreanon&amp;utm_medium=feed">Read more of this story</a> at Slashdot.</p><img alt="" height="1" src="http://feeds.feedburner.com/~r/Slashdot/slashdot/~4/EBWPMjqpxRM" width="1" />
p537
stRp538
sg11
g12
((I2015
I3
I17
I6
I4
I0
I1
I76
I0
t(dtRp539
sg14
(lp540
g1
(g2
g3
(dp541
g17
Vhttp://rss.slashdot.org/~r/Slashdot/slashdot/~3/EBWPMjqpxRM/new-3d-printing-process-claimed-to-be-25x-faster-than-current-technology
p542
sg19
g20
sg21
g22
stRp543
asg38
(lp544
g1
(g2
g3
(dp545
g41
Vbuild
p546
sg43
Nsg44
NstRp547
asS'slash_department'
p548
Vmay-be-t1000-in-disguise
p549
sS'feedburner_origlink'
p550
Vhttp://build.slashdot.org/story/15/03/17/0213210/new-3d-printing-process-claimed-to-be-25x-faster-than-current-technology?utm_source=rss1.0mainlinkanon&utm_medium=feed
p551
sg7
V2015-03-17T06:04:00+00:00
p552
sS'slash_section'
p553
Vbuild
p554
sg57
g542
sg58
(lp555
g1
(g2
g3
(dtRp556
asS'author_detail'
p557
g1
(g2
g3
(dp558
g72
VSoulskill
p559
stRp560
sS'slash_hit_parade'
p561
V77,76,54,47,16,5,1
p562
sg151
Vhttp://build.slashdot.org/story/15/03/17/0213210/new-3d-printing-process-claimed-to-be-25x-faster-than-current-technology?utm_source=rss1.0mainlinkanon&utm_medium=feed
p563
sS'slash_comments'
p564
V77
p565
sg103
VNew 3D Printing Process Claimed To Be 25X Faster Than Current Technology
p566
sg84
g559
sg155
VErnieKey writes: Carbon3D, a startup based in Redwood City, CA. has just announced a new breakthrough 3D printing technology called Continuous Liquid Interface Production technology (CLIP). The process works by using oxygen as an inhibiting agent as a UV light rapidly cures a photosensitive resin (abstract). "Conventional 3D printers usually take several hours to print an object &mdash; because with most printing methods, they need to individually treat each new layer of material after it's put down so that the next layer can be put down on top of it. The new method is much faster because it works continually, instead of in layers, eliminating this step. As a result, it works in minutes, rather than hours &mdash; 25 to 100 times faster, its creators say, than conventional 3D printing." The company has just emerged from stealth mode and announced that they have raised a staggering $41 million to further develop the process and bring it to market.<p><div class="share_submission">\u000a<a class="slashpop" href="http://twitter.com/home?status=New+3D+Printing+Process+Claimed+To+Be+25X+Faster+Than+Current+Technology\u005c%3A+http\u005c%3A\u005c%2F\u005c%2Fbit.ly\u005c%2F1BOSo7d"><img src="http://a.fsdn.com/sd/twitter_icon_large.png" /></a>\u000a<a class="slashpop" href="http://www.facebook.com/sharer.php?u=http\u005c%3A\u005c%2F\u005c%2Fbuild.slashdot.org\u005c%2Fstory\u005c%2F15\u005c%2F03\u005c%2F17\u005c%2F0213210\u005c%2Fnew-3d-printing-process-claimed-to-be-25x-faster-than-current-technology\u005c%3Futm_source\u005c%3Dslashdot\u005c%26utm_medium\u005c%3Dfacebook"><img src="http://a.fsdn.com/sd/facebook_icon_large.png" /></a>\u000a\u000a<a class="nobg" href="http://plus.google.com/share?url=http://build.slashdot.org/story/15/03/17/0213210/new-3d-printing-process-claimed-to-be-25x-faster-than-current-technology?utm_source=slashdot&amp;utm_medium=googleplus"><img alt="Share on Google+" src="http://www.gstatic.com/images/icons/gplus-16.png" /></a>                                                                                                                                                                              \u000a\u000a\u000a\u000a</div></p><p><a href="http://build.slashdot.org/story/15/03/17/0213210/new-3d-printing-process-claimed-to-be-25x-faster-than-current-technology?utm_source=rss1.0moreanon&amp;utm_medium=feed">Read more of this story</a> at Slashdot.</p><img alt="" height="1" src="http://feeds.feedburner.com/~r/Slashdot/slashdot/~4/EBWPMjqpxRM" width="1" />
p567
sS'title_detail'
p568
g1
(g2
g3
(dp569
g63
Vhttp://rss.slashdot.org/slashdot/Slashdot
p570
sg19
g98
sg66
Nsg67
g566
stRp571
sg161
(lp572
VSlashdot
p573
aV*
aS'read'
p574
astRp575
ag1
(g2
g3
(dp576
S'summary_detail'
p577
g1
(g2
g3
(dp578
g63
Vhttp://rss.slashdot.org/slashdot/Slashdot
p579
sg19
g93
sg66
Nsg67
VZothecula writes: The High-Repetition-Rate Advanced Petawatt Laser System (HAPLS) under construction in the Czech Republic is designed to generate a peak power of more than 1 petawatt. The key component to this instrument &ndash; the laser "pump" &ndash; will be a set of solid-state laser diode arrays recently constructed by Lawrence Livermore National Laboratory. At peak power, this electronic assemblage develops a staggering 3.2 million watts of power and are the most powerful laser diode arrays ever built.<p><div class="share_submission">\u000a<a class="slashpop" href="http://twitter.com/home?status=World's+Most+Powerful+Laser+Diode+Arrays+Deployed%3A+http%3A%2F%2Fbit.ly%2F1GgwREi"><img src="http://a.fsdn.com/sd/twitter_icon_large.png" /></a>\u000a<a class="slashpop" href="http://www.facebook.com/sharer.php?u=http%3A%2F%2Fnews.slashdot.org%2Fstory%2F15%2F03%2F17%2F0220214%2Fworlds-most-powerful-laser-diode-arrays-deployed%3Futm_source%3Dslashdot%26utm_medium%3Dfacebook"><img src="http://a.fsdn.com/sd/facebook_icon_large.png" /></a>\u000a\u000a<a class="nobg" href="http://plus.google.com/share?url=http://news.slashdot.org/story/15/03/17/0220214/worlds-most-powerful-laser-diode-arrays-deployed?utm_source=slashdot&amp;utm_medium=googleplus"><img alt="Share on Google+" src="http://www.gstatic.com/images/icons/gplus-16.png" /></a>                                                                                                                                                                              \u000a\u000a\u000a\u000a</div></p><p><a href="http://news.slashdot.org/story/15/03/17/0220214/worlds-most-powerful-laser-diode-arrays-deployed?utm_source=rss1.0moreanon&amp;utm_medium=feed">Read more of this story</a> at Slashdot.</p><img alt="" height="1" src="http://feeds.feedburner.com/~r/Slashdot/slashdot/~4/hYpodHsxr5Y" width="1" />
p580
stRp581
sg11
g12
((I2015
I3
I17
I5
I8
I0
I1
I76
I0
t(dtRp582
sg14
(lp583
g1
(g2
g3
(dp584
g17
Vhttp://rss.slashdot.org/~r/Slashdot/slashdot/~3/hYpodHsxr5Y/worlds-most-powerful-laser-diode-arrays-deployed
p585
sg19
g20
sg21
g22
stRp586
asg38
(lp587
g1
(g2
g3
(dp588
g41
Vshark
p589
sg43
Nsg44
NstRp590
asS'slash_department'
p591
Vaside-from-the-secret-white-house-defense-lasers
p592
sS'feedburner_origlink'
p593
Vhttp://news.slashdot.org/story/15/03/17/0220214/worlds-most-powerful-laser-diode-arrays-deployed?utm_source=rss1.0mainlinkanon&utm_medium=feed
p594
sg7
V2015-03-17T05:08:00+00:00
p595
sS'slash_section'
p596
Vnews
p597
sg57
g585
sg58
(lp598
g1
(g2
g3
(dtRp599
asS'author_detail'
p600
g1
(g2
g3
(dp601
g72
VSoulskill
p602
stRp603
sS'slash_hit_parade'
p604
V47,47,28,24,8,6,4
p605
sg151
Vhttp://news.slashdot.org/story/15/03/17/0220214/worlds-most-powerful-laser-diode-arrays-deployed?utm_source=rss1.0mainlinkanon&utm_medium=feed
p606
sS'slash_comments'
p607
V47
p608
sg103
VWorld's Most Powerful Laser Diode Arrays Deployed
p609
sg84
g602
sg155
VZothecula writes: The High-Repetition-Rate Advanced Petawatt Laser System (HAPLS) under construction in the Czech Republic is designed to generate a peak power of more than 1 petawatt. The key component to this instrument &ndash; the laser "pump" &ndash; will be a set of solid-state laser diode arrays recently constructed by Lawrence Livermore National Laboratory. At peak power, this electronic assemblage develops a staggering 3.2 million watts of power and are the most powerful laser diode arrays ever built.<p><div class="share_submission">\u000a<a class="slashpop" href="http://twitter.com/home?status=World's+Most+Powerful+Laser+Diode+Arrays+Deployed\u005c%3A+http\u005c%3A\u005c%2F\u005c%2Fbit.ly\u005c%2F1GgwREi"><img src="http://a.fsdn.com/sd/twitter_icon_large.png" /></a>\u000a<a class="slashpop" href="http://www.facebook.com/sharer.php?u=http\u005c%3A\u005c%2F\u005c%2Fnews.slashdot.org\u005c%2Fstory\u005c%2F15\u005c%2F03\u005c%2F17\u005c%2F0220214\u005c%2Fworlds-most-powerful-laser-diode-arrays-deployed\u005c%3Futm_source\u005c%3Dslashdot\u005c%26utm_medium\u005c%3Dfacebook"><img src="http://a.fsdn.com/sd/facebook_icon_large.png" /></a>\u000a\u000a<a class="nobg" href="http://plus.google.com/share?url=http://news.slashdot.org/story/15/03/17/0220214/worlds-most-powerful-laser-diode-arrays-deployed?utm_source=slashdot&amp;utm_medium=googleplus"><img alt="Share on Google+" src="http://www.gstatic.com/images/icons/gplus-16.png" /></a>                                                                                                                                                                              \u000a\u000a\u000a\u000a</div></p><p><a href="http://news.slashdot.org/story/15/03/17/0220214/worlds-most-powerful-laser-diode-arrays-deployed?utm_source=rss1.0moreanon&amp;utm_medium=feed">Read more of this story</a> at Slashdot.</p><img alt="" height="1" src="http://feeds.feedburner.com/~r/Slashdot/slashdot/~4/hYpodHsxr5Y" width="1" />
p610
sS'title_detail'
p611
g1
(g2
g3
(dp612
g63
Vhttp://rss.slashdot.org/slashdot/Slashdot
p613
sg19
g98
sg66
Nsg67
g609
stRp614
sg161
(lp615
g99
aV*
astRp616
ag1
(g2
g3
(dp617
S'summary_detail'
p618
g1
(g2
g3
(dp619
g63
Vhttp://rss.slashdot.org/slashdot/Slashdot
p620
sg19
g93
sg66
Nsg67
VPresto Vivace sends this report from the National Journal:\u000aA judicial advisory panel Monday quietly approved a rule change that will broaden the FBI's hacking authority despite fears raised by Google that the amended language represents a "monumental" constitutional concern. The Judicial Conference Advisory Committee on Criminal Rules voted 11-1 to modify an arcane federal rule to allow judges more flexibility in how they approve search warrants for electronic data, according to a Justice Department spokesman. Known as Rule 41, the existing provision generally allows judges to approve search warrants only for material within the geographic bounds of their judicial district. But the rule change, as requested by the department, would allow judges to grant warrants for remote searches of computers located outside their district or when the location is unknown.<p><div class="share_submission">\u000a<a class="slashpop" href="http://twitter.com/home?status=Judicial+Committee+Approves+FBI+Plan+To+Expand+Hacking+Powers%3A+http%3A%2F%2Fbit.ly%2F1ElvqSD"><img src="http://a.fsdn.com/sd/twitter_icon_large.png" /></a>\u000a<a class="slashpop" href="http://www.facebook.com/sharer.php?u=http%3A%2F%2Fyro.slashdot.org%2Fstory%2F15%2F03%2F17%2F001225%2Fjudicial-committee-approves-fbi-plan-to-expand-hacking-powers%3Futm_source%3Dslashdot%26utm_medium%3Dfacebook"><img src="http://a.fsdn.com/sd/facebook_icon_large.png" /></a>\u000a\u000a<a class="nobg" href="http://plus.google.com/share?url=http://yro.slashdot.org/story/15/03/17/001225/judicial-committee-approves-fbi-plan-to-expand-hacking-powers?utm_source=slashdot&amp;utm_medium=googleplus"><img alt="Share on Google+" src="http://www.gstatic.com/images/icons/gplus-16.png" /></a>                                                                                                                                                                              \u000a\u000a\u000a\u000a</div></p><p><a href="http://yro.slashdot.org/story/15/03/17/001225/judicial-committee-approves-fbi-plan-to-expand-hacking-powers?utm_source=rss1.0moreanon&amp;utm_medium=feed">Read more of this story</a> at Slashdot.</p><img alt="" height="1" src="http://feeds.feedburner.com/~r/Slashdot/slashdot/~4/h6QUYayeq6E" width="1" />
p621
stRp622
sg11
g12
((I2015
I3
I17
I4
I8
I0
I1
I76
I0
t(dtRp623
sg14
(lp624
g1
(g2
g3
(dp625
g17
Vhttp://rss.slashdot.org/~r/Slashdot/slashdot/~3/h6QUYayeq6E/judicial-committee-approves-fbi-plan-to-expand-hacking-powers
p626
sg19
g20
sg21
g22
stRp627
asg38
(lp628
g1
(g2
g3
(dp629
g41
Vgovernment
p630
sg43
Nsg44
NstRp631
asS'slash_department'
p632
Vpretend-to-be-surprised
p633
sS'feedburner_origlink'
p634
Vhttp://yro.slashdot.org/story/15/03/17/001225/judicial-committee-approves-fbi-plan-to-expand-hacking-powers?utm_source=rss1.0mainlinkanon&utm_medium=feed
p635
sg7
V2015-03-17T04:08:00+00:00
p636
sS'slash_section'
p637
Vyro
p638
sg57
g626
sg58
(lp639
g1
(g2
g3
(dtRp640
asS'author_detail'
p641
g1
(g2
g3
(dp642
g72
VSoulskill
p643
stRp644
sS'slash_hit_parade'
p645
V64,61,39,30,8,2,1
p646
sg151
Vhttp://yro.slashdot.org/story/15/03/17/001225/judicial-committee-approves-fbi-plan-to-expand-hacking-powers?utm_source=rss1.0mainlinkanon&utm_medium=feed
p647
sS'slash_comments'
p648
V64
p649
sg103
VJudicial Committee Approves FBI Plan To Expand Hacking Powers
p650
sg84
g643
sg155
VPresto Vivace sends this report from the National Journal:\u000aA judicial advisory panel Monday quietly approved a rule change that will broaden the FBI's hacking authority despite fears raised by Google that the amended language represents a "monumental" constitutional concern. The Judicial Conference Advisory Committee on Criminal Rules voted 11-1 to modify an arcane federal rule to allow judges more flexibility in how they approve search warrants for electronic data, according to a Justice Department spokesman. Known as Rule 41, the existing provision generally allows judges to approve search warrants only for material within the geographic bounds of their judicial district. But the rule change, as requested by the department, would allow judges to grant warrants for remote searches of computers located outside their district or when the location is unknown.<p><div class="share_submission">\u000a<a class="slashpop" href="http://twitter.com/home?status=Judicial+Committee+Approves+FBI+Plan+To+Expand+Hacking+Powers\u005c%3A+http\u005c%3A\u005c%2F\u005c%2Fbit.ly\u005c%2F1ElvqSD"><img src="http://a.fsdn.com/sd/twitter_icon_large.png" /></a>\u000a<a class="slashpop" href="http://www.facebook.com/sharer.php?u=http\u005c%3A\u005c%2F\u005c%2Fyro.slashdot.org\u005c%2Fstory\u005c%2F15\u005c%2F03\u005c%2F17\u005c%2F001225\u005c%2Fjudicial-committee-approves-fbi-plan-to-expand-hacking-powers\u005c%3Futm_source\u005c%3Dslashdot\u005c%26utm_medium\u005c%3Dfacebook"><img src="http://a.fsdn.com/sd/facebook_icon_large.png" /></a>\u000a\u000a<a class="nobg" href="http://plus.google.com/share?url=http://yro.slashdot.org/story/15/03/17/001225/judicial-committee-approves-fbi-plan-to-expand-hacking-powers?utm_source=slashdot&amp;utm_medium=googleplus"><img alt="Share on Google+" src="http://www.gstatic.com/images/icons/gplus-16.png" /></a>                                                                                                                                                                              \u000a\u000a\u000a\u000a</div></p><p><a href="http://yro.slashdot.org/story/15/03/17/001225/judicial-committee-approves-fbi-plan-to-expand-hacking-powers?utm_source=rss1.0moreanon&amp;utm_medium=feed">Read more of this story</a> at Slashdot.</p><img alt="" height="1" src="http://feeds.feedburner.com/~r/Slashdot/slashdot/~4/h6QUYayeq6E" width="1" />
p651
sS'title_detail'
p652
g1
(g2
g3
(dp653
g63
Vhttp://rss.slashdot.org/slashdot/Slashdot
p654
sg19
g98
sg66
Nsg67
g650
stRp655
sg161
(lp656
g99
aV*
astRp657
ag1
(g2
g3
(dp658
S'summary_detail'
p659
g1
(g2
g3
(dp660
g63
Vhttp://rss.slashdot.org/slashdot/Slashdot
p661
sg19
g93
sg66
Nsg67
VAn anonymous reader writes: Phil Plait just published an article about how politics is interfering with NASA's ability to perform vital scientific experiments. As expected when we heard that Ted Cruz would be made head of the committee in charge of NASA's funding, the Texas senator is pushing hard for NASA to stop studying Earth itself. Plait writes, "Over the years, NASA has had to beg and scrape to get the relatively small amount of money it gets&mdash;less than half a percent of the national budget&mdash;and still manages to do great things with it. Cruz is worried NASA's focus needs to be more on space exploration. Fine. Then give them enough money to do everything in their charter: Explore space, send humans there, and study our planet. Whether you think climate change is real or not&mdash;and it is&mdash; telling NASA they should turn a blind eye to the environment of our own planet is insanity." He concludes, "[T]he politics of funding a government agency is tying NASA in knots and critically endangering its ability to explore."<p><div class="share_submission">\u000a<a class="slashpop" href="http://twitter.com/home?status=Politics+Is+Poisoning+NASA's+Ability+To+Do+Science%3A+http%3A%2F%2Fbit.ly%2F1wSKwBz"><img src="http://a.fsdn.com/sd/twitter_icon_large.png" /></a>\u000a<a class="slashpop" href="http://www.facebook.com/sharer.php?u=http%3A%2F%2Fpolitics.slashdot.org%2Fstory%2F15%2F03%2F17%2F0025235%2Fpolitics-is-poisoning-nasas-ability-to-do-science%3Futm_source%3Dslashdot%26utm_medium%3Dfacebook"><img src="http://a.fsdn.com/sd/facebook_icon_large.png" /></a>\u000a\u000a<a class="nobg" href="http://plus.google.com/share?url=http://politics.slashdot.org/story/15/03/17/0025235/politics-is-poisoning-nasas-ability-to-do-science?utm_source=slashdot&amp;utm_medium=googleplus"><img alt="Share on Google+" src="http://www.gstatic.com/images/icons/gplus-16.png" /></a>                                                                                                                                                                              \u000a\u000a\u000a\u000a</div></p><p><a href="http://politics.slashdot.org/story/15/03/17/0025235/politics-is-poisoning-nasas-ability-to-do-science?utm_source=rss1.0moreanon&amp;utm_medium=feed">Read more of this story</a> at Slashdot.</p><img alt="" height="1" src="http://feeds.feedburner.com/~r/Slashdot/slashdot/~4/P9Lm1VnzmEE" width="1" />
p662
stRp663
sg11
g12
((I2015
I3
I17
I2
I5
I0
I1
I76
I0
t(dtRp664
sg14
(lp665
g1
(g2
g3
(dp666
g17
Vhttp://rss.slashdot.org/~r/Slashdot/slashdot/~3/P9Lm1VnzmEE/politics-is-poisoning-nasas-ability-to-do-science
p667
sg19
g20
sg21
g22
stRp668
asg38
(lp669
g1
(g2
g3
(dp670
g41
Vnasa
p671
sg43
Nsg44
NstRp672
asS'slash_department'
p673
Vpretend-to-be-surprised
p674
sS'feedburner_origlink'
p675
Vhttp://politics.slashdot.org/story/15/03/17/0025235/politics-is-poisoning-nasas-ability-to-do-science?utm_source=rss1.0mainlinkanon&utm_medium=feed
p676
sg7
V2015-03-17T02:05:00+00:00
p677
sS'slash_section'
p678
Vpolitics
p679
sg57
g667
sg58
(lp680
g1
(g2
g3
(dtRp681
asS'author_detail'
p682
g1
(g2
g3
(dp683
g72
VSoulskill
p684
stRp685
sS'slash_hit_parade'
p686
V271,263,174,134,45,29,19
p687
sg151
Vhttp://politics.slashdot.org/story/15/03/17/0025235/politics-is-poisoning-nasas-ability-to-do-science?utm_source=rss1.0mainlinkanon&utm_medium=feed
p688
sS'slash_comments'
p689
V271
p690
sg103
VPolitics Is Poisoning NASA's Ability To Do Science
p691
sg84
g684
sg155
VAn anonymous reader writes: Phil Plait just published an article about how politics is interfering with NASA's ability to perform vital scientific experiments. As expected when we heard that Ted Cruz would be made head of the committee in charge of NASA's funding, the Texas senator is pushing hard for NASA to stop studying Earth itself. Plait writes, "Over the years, NASA has had to beg and scrape to get the relatively small amount of money it gets&mdash;less than half a percent of the national budget&mdash;and still manages to do great things with it. Cruz is worried NASA's focus needs to be more on space exploration. Fine. Then give them enough money to do everything in their charter: Explore space, send humans there, and study our planet. Whether you think climate change is real or not&mdash;and it is&mdash; telling NASA they should turn a blind eye to the environment of our own planet is insanity." He concludes, "[T]he politics of funding a government agency is tying NASA in knots and critically endangering its ability to explore."<p><div class="share_submission">\u000a<a class="slashpop" href="http://twitter.com/home?status=Politics+Is+Poisoning+NASA's+Ability+To+Do+Science\u005c%3A+http\u005c%3A\u005c%2F\u005c%2Fbit.ly\u005c%2F1wSKwBz"><img src="http://a.fsdn.com/sd/twitter_icon_large.png" /></a>\u000a<a class="slashpop" href="http://www.facebook.com/sharer.php?u=http\u005c%3A\u005c%2F\u005c%2Fpolitics.slashdot.org\u005c%2Fstory\u005c%2F15\u005c%2F03\u005c%2F17\u005c%2F0025235\u005c%2Fpolitics-is-poisoning-nasas-ability-to-do-science\u005c%3Futm_source\u005c%3Dslashdot\u005c%26utm_medium\u005c%3Dfacebook"><img src="http://a.fsdn.com/sd/facebook_icon_large.png" /></a>\u000a\u000a<a class="nobg" href="http://plus.google.com/share?url=http://politics.slashdot.org/story/15/03/17/0025235/politics-is-poisoning-nasas-ability-to-do-science?utm_source=slashdot&amp;utm_medium=googleplus"><img alt="Share on Google+" src="http://www.gstatic.com/images/icons/gplus-16.png" /></a>                                                                                                                                                                              \u000a\u000a\u000a\u000a</div></p><p><a href="http://politics.slashdot.org/story/15/03/17/0025235/politics-is-poisoning-nasas-ability-to-do-science?utm_source=rss1.0moreanon&amp;utm_medium=feed">Read more of this story</a> at Slashdot.</p><img alt="" height="1" src="http://feeds.feedburner.com/~r/Slashdot/slashdot/~4/P9Lm1VnzmEE" width="1" />
p692
sS'title_detail'
p693
g1
(g2
g3
(dp694
g63
Vhttp://rss.slashdot.org/slashdot/Slashdot
p695
sg19
g98
sg66
Nsg67
g691
stRp696
sg161
(lp697
g99
aV*
astRp698
ag1
(g2
g3
(dp699
S'summary_detail'
p700
g1
(g2
g3
(dp701
g63
Vhttp://rss.slashdot.org/slashdot/Slashdot
p702
sg19
g93
sg66
Nsg67
Vv3rgEz writes: The NY Times looks at how local police are fighting to keep their use of cell phone surveillance secret, including signing NDAs with Stingray manufacturer Harris Corp and claiming the documents have been lost. It's part of a broader trend of local agencies adopting the tactics of covert intelligence groups as they seek to adopt new technology in the digital era. "The nondisclosure agreements for the cell site simulators are overseen by the Federal Bureau of Investigation and typically involve the Harris Corporation, a multibillion-dollar defense contractor and a maker of the technology. What has opponents particularly concerned about StingRay is that the technology, unlike other phone surveillance methods, can also scan all the cellphones in the area where it is being used, not just the target phone. ... For instance, in Tucson, a journalist asking the Police Department about its StingRay use was given a copy of a nondisclosure agreement. 'The City of Tucson shall not discuss, publish, release or disclose any information pertaining to the product,' it read, and then noted: 'Without the prior written consent of Harris.'"<p><div class="share_submission">\u000a<a class="slashpop" href="http://twitter.com/home?status=How+Police+Fight+To+Keep+Use+of+Stingrays+Secret%3A+http%3A%2F%2Fbit.ly%2F1MFQj0U"><img src="http://a.fsdn.com/sd/twitter_icon_large.png" /></a>\u000a<a class="slashpop" href="http://www.facebook.com/sharer.php?u=http%3A%2F%2Fyro.slashdot.org%2Fstory%2F15%2F03%2F16%2F2329254%2Fhow-police-fight-to-keep-use-of-stingrays-secret%3Futm_source%3Dslashdot%26utm_medium%3Dfacebook"><img src="http://a.fsdn.com/sd/facebook_icon_large.png" /></a>\u000a\u000a<a class="nobg" href="http://plus.google.com/share?url=http://yro.slashdot.org/story/15/03/16/2329254/how-police-fight-to-keep-use-of-stingrays-secret?utm_source=slashdot&amp;utm_medium=googleplus"><img alt="Share on Google+" src="http://www.gstatic.com/images/icons/gplus-16.png" /></a>                                                                                                                                                                              \u000a\u000a\u000a\u000a</div></p><p><a href="http://yro.slashdot.org/story/15/03/16/2329254/how-police-fight-to-keep-use-of-stingrays-secret?utm_source=rss1.0moreanon&amp;utm_medium=feed">Read more of this story</a> at Slashdot.</p><img alt="" height="1" src="http://feeds.feedburner.com/~r/Slashdot/slashdot/~4/HYi4E2jGjko" width="1" />
p703
stRp704
sg11
g12
((I2015
I3
I17
I0
I0
I0
I1
I76
I0
t(dtRp705
sg14
(lp706
g1
(g2
g3
(dp707
g17
Vhttp://rss.slashdot.org/~r/Slashdot/slashdot/~3/HYi4E2jGjko/how-police-fight-to-keep-use-of-stingrays-secret
p708
sg19
g20
sg21
g22
stRp709
asg38
(lp710
g1
(g2
g3
(dp711
g41
Vgovernment
p712
sg43
Nsg44
NstRp713
asS'slash_department'
p714
Vyou-can-trust-us
p715
sS'feedburner_origlink'
p716
Vhttp://yro.slashdot.org/story/15/03/16/2329254/how-police-fight-to-keep-use-of-stingrays-secret?utm_source=rss1.0mainlinkanon&utm_medium=feed
p717
sg7
V2015-03-17T00:00:00+00:00
p718
sS'slash_section'
p719
Vyro
p720
sg57
g708
sg58
(lp721
g1
(g2
g3
(dtRp722
asS'author_detail'
p723
g1
(g2
g3
(dp724
g72
VSoulskill
p725
stRp726
sS'slash_hit_parade'
p727
V130,128,91,65,22,12,9
p728
sg151
Vhttp://yro.slashdot.org/story/15/03/16/2329254/how-police-fight-to-keep-use-of-stingrays-secret?utm_source=rss1.0mainlinkanon&utm_medium=feed
p729
sS'slash_comments'
p730
V130
p731
sg103
VHow Police Fight To Keep Use of Stingrays Secret
p732
sg84
g725
sg155
Vv3rgEz writes: The NY Times looks at how local police are fighting to keep their use of cell phone surveillance secret, including signing NDAs with Stingray manufacturer Harris Corp and claiming the documents have been lost. It's part of a broader trend of local agencies adopting the tactics of covert intelligence groups as they seek to adopt new technology in the digital era. "The nondisclosure agreements for the cell site simulators are overseen by the Federal Bureau of Investigation and typically involve the Harris Corporation, a multibillion-dollar defense contractor and a maker of the technology. What has opponents particularly concerned about StingRay is that the technology, unlike other phone surveillance methods, can also scan all the cellphones in the area where it is being used, not just the target phone. ... For instance, in Tucson, a journalist asking the Police Department about its StingRay use was given a copy of a nondisclosure agreement. 'The City of Tucson shall not discuss, publish, release or disclose any information pertaining to the product,' it read, and then noted: 'Without the prior written consent of Harris.'"<p><div class="share_submission">\u000a<a class="slashpop" href="http://twitter.com/home?status=How+Police+Fight+To+Keep+Use+of+Stingrays+Secret\u005c%3A+http\u005c%3A\u005c%2F\u005c%2Fbit.ly\u005c%2F1MFQj0U"><img src="http://a.fsdn.com/sd/twitter_icon_large.png" /></a>\u000a<a class="slashpop" href="http://www.facebook.com/sharer.php?u=http\u005c%3A\u005c%2F\u005c%2Fyro.slashdot.org\u005c%2Fstory\u005c%2F15\u005c%2F03\u005c%2F16\u005c%2F2329254\u005c%2Fhow-police-fight-to-keep-use-of-stingrays-secret\u005c%3Futm_source\u005c%3Dslashdot\u005c%26utm_medium\u005c%3Dfacebook"><img src="http://a.fsdn.com/sd/facebook_icon_large.png" /></a>\u000a\u000a<a class="nobg" href="http://plus.google.com/share?url=http://yro.slashdot.org/story/15/03/16/2329254/how-police-fight-to-keep-use-of-stingrays-secret?utm_source=slashdot&amp;utm_medium=googleplus"><img alt="Share on Google+" src="http://www.gstatic.com/images/icons/gplus-16.png" /></a>                                                                                                                                                                              \u000a\u000a\u000a\u000a</div></p><p><a href="http://yro.slashdot.org/story/15/03/16/2329254/how-police-fight-to-keep-use-of-stingrays-secret?utm_source=rss1.0moreanon&amp;utm_medium=feed">Read more of this story</a> at Slashdot.</p><img alt="" height="1" src="http://feeds.feedburner.com/~r/Slashdot/slashdot/~4/HYi4E2jGjko" width="1" />
p733
sS'title_detail'
p734
g1
(g2
g3
(dp735
g63
Vhttp://rss.slashdot.org/slashdot/Slashdot
p736
sg19
g98
sg66
Nsg67
g732
stRp737
sg161
(lp738
g99
aV*
astRp739
asS'canto_update'
p740
F1426612293.6265709
sS'headers'
p741
(dp742
S'alternate-protocol'
p743
S'80:quic,p=0.5,80:quic,p=0.5'
p744
sS'x-xss-protection'
p745
S'1; mode=block'
p746
sS'x-content-type-options'
p747
S'nosniff'
p748
sS'accept-ranges'
p749
S'none'
p750
sS'expires'
p751
S'Tue, 17 Mar 2015 17:11:33 GMT'
p752
sS'vary'
p753
S'Accept-Encoding'
p754
sS'server'
p755
S'GSE'
p756
sS'last-modified'
p757
g115
sS'connection'
p758
S'close'
p759
sS'cache-control'
p760
S'private, max-age=0'
p761
sS'date'
p762
S'Tue, 17 Mar 2015 17:11:33 GMT'
p763
sS'content-type'
p764
S'text/xml; charset=ISO-8859-1'
p765
ssg17
Vhttp://rss.slashdot.org/slashdot/Slashdot
p766
sg161
(lp767
sS'version'
p768
Vrss10
p769
sS'canto_version'
p770
(I0
I7
I10
tp771
sS'namespaces'
p772
(dp773
S''
Vhttp://www.w3.org/2005/Atom
p774
sS'sy'
p775
Vhttp://purl.org/rss/1.0/modules/syndication/
p776
sS'taxo'
p777
Vhttp://purl.org/rss/1.0/modules/taxonomy/
p778
sS'admin'
p779
Vhttp://webns.net/mvcb/
p780
sS'dc'
p781
Vhttp://purl.org/dc/elements/1.1/
p782
sS'content'
p783
Vhttp://purl.org/rss/1.0/modules/content/
p784
sS'rdf'
p785
Vhttp://www.w3.org/1999/02/22-rdf-syntax-ns#
p786
sS'slash'
p787
Vhttp://purl.org/rss/1.0/modules/slash/
p788
sS'feedburner'
p789
Vhttp://rssnamespace.org/feedburner/ext/1.0
p790
sstRp791
.